ARM GAS  C:\Users\admin\AppData\Local\Temp\ccfrlj1c.s 			page 1


   1              		.cpu cortex-m0
   2              		.arch armv6s-m
   3              		.fpu softvfp
   4              		.eabi_attribute 20, 1
   5              		.eabi_attribute 21, 1
   6              		.eabi_attribute 23, 3
   7              		.eabi_attribute 24, 1
   8              		.eabi_attribute 25, 1
   9              		.eabi_attribute 26, 1
  10              		.eabi_attribute 30, 1
  11              		.eabi_attribute 34, 0
  12              		.eabi_attribute 18, 4
  13              		.file	"main.c"
  14              		.text
  15              	.Ltext0:
  16              		.cfi_sections	.debug_frame
  17              		.file 1 "Core/Src/main.c"
  18              		.section	.text.MX_GPIO_Init,"ax",%progbits
  19              		.align	1
  20              		.syntax unified
  21              		.code	16
  22              		.thumb_func
  24              	MX_GPIO_Init:
  25              	.LFB42:
   1:Core/Src/main.c **** /* USER CODE BEGIN Header */
   2:Core/Src/main.c **** /**
   3:Core/Src/main.c ****   ******************************************************************************
   4:Core/Src/main.c ****   * @file           : main.c
   5:Core/Src/main.c ****   * @brief          : Main program body
   6:Core/Src/main.c ****   ******************************************************************************
   7:Core/Src/main.c ****   * @attention
   8:Core/Src/main.c ****   *
   9:Core/Src/main.c ****   * Copyright (c) 2025 STMicroelectronics.
  10:Core/Src/main.c ****   * All rights reserved.
  11:Core/Src/main.c ****   *
  12:Core/Src/main.c ****   * This software is licensed under terms that can be found in the LICENSE file
  13:Core/Src/main.c ****   * in the root directory of this software component.
  14:Core/Src/main.c ****   * If no LICENSE file comes with this software, it is provided AS-IS.
  15:Core/Src/main.c ****   *
  16:Core/Src/main.c ****   ******************************************************************************
  17:Core/Src/main.c ****   */
  18:Core/Src/main.c **** /* USER CODE END Header */
  19:Core/Src/main.c **** /* Includes ------------------------------------------------------------------*/
  20:Core/Src/main.c **** #include "main.h"
  21:Core/Src/main.c **** 
  22:Core/Src/main.c **** /* Private includes ----------------------------------------------------------*/
  23:Core/Src/main.c **** /* USER CODE BEGIN Includes */
  24:Core/Src/main.c **** #include <stdint.h>
  25:Core/Src/main.c **** #include "stm32f0xx.h"
  26:Core/Src/main.c **** #include "stm32f0xx_hal_tim.h"
  27:Core/Src/main.c **** /* USER CODE END Includes */
  28:Core/Src/main.c **** 
  29:Core/Src/main.c **** /* Private typedef -----------------------------------------------------------*/
  30:Core/Src/main.c **** /* USER CODE BEGIN PTD */
  31:Core/Src/main.c **** 
  32:Core/Src/main.c **** /* USER CODE END PTD */
  33:Core/Src/main.c **** 
ARM GAS  C:\Users\admin\AppData\Local\Temp\ccfrlj1c.s 			page 2


  34:Core/Src/main.c **** /* Private define ------------------------------------------------------------*/
  35:Core/Src/main.c **** /* USER CODE BEGIN PD */
  36:Core/Src/main.c **** #define MAX_ITER 100
  37:Core/Src/main.c **** /* USER CODE END PD */
  38:Core/Src/main.c **** 
  39:Core/Src/main.c **** /* Private macro -------------------------------------------------------------*/
  40:Core/Src/main.c **** /* USER CODE BEGIN PM */
  41:Core/Src/main.c **** 
  42:Core/Src/main.c **** /* USER CODE END PM */
  43:Core/Src/main.c **** 
  44:Core/Src/main.c **** /* Private variables ---------------------------------------------------------*/
  45:Core/Src/main.c **** 
  46:Core/Src/main.c **** /* USER CODE BEGIN PV */
  47:Core/Src/main.c **** //TODO: Define variables you think you might need
  48:Core/Src/main.c **** // - Performance timing variables (e.g execution time, throughput, pixels per second, clock cycles)
  49:Core/Src/main.c **** uint32_t start_time = 0;
  50:Core/Src/main.c **** uint32_t end_time = 0;
  51:Core/Src/main.c **** uint32_t execution_time = 0;
  52:Core/Src/main.c **** uint64_t checksum = 0;
  53:Core/Src/main.c **** uint32_t cpuCycles = 0;
  54:Core/Src/main.c **** uint64_t totalPixels = 0;
  55:Core/Src/main.c **** double executionSec = 0;
  56:Core/Src/main.c **** double throughput = 0;
  57:Core/Src/main.c **** int width = 0;
  58:Core/Src/main.c **** int height = 0;
  59:Core/Src/main.c **** 
  60:Core/Src/main.c **** int widths[] = {128, 160, 192, 224, 265};
  61:Core/Src/main.c **** int heights[] = {128, 160, 192, 224, 265};
  62:Core/Src/main.c **** volatile uint32_t execTimes[5];
  63:Core/Src/main.c **** volatile uint64_t checksums[5];
  64:Core/Src/main.c **** volatile double throughputs[5];
  65:Core/Src/main.c **** /* USER CODE END PV */
  66:Core/Src/main.c **** 
  67:Core/Src/main.c **** /* Private function prototypes -----------------------------------------------*/
  68:Core/Src/main.c **** void SystemClock_Config(void);
  69:Core/Src/main.c **** static void MX_GPIO_Init(void);
  70:Core/Src/main.c **** /* USER CODE BEGIN PFP */
  71:Core/Src/main.c **** //TODO: Define any function prototypes you might need such as the calculate Mandelbrot function amo
  72:Core/Src/main.c **** uint64_t calculate_mandelbrot_fixed_point_arithmetic(int width, int height, int max_iterations);
  73:Core/Src/main.c **** uint64_t calculate_mandelbrot_double(int width, int height, int max_iterations);
  74:Core/Src/main.c **** 
  75:Core/Src/main.c **** /* USER CODE END PFP */
  76:Core/Src/main.c **** 
  77:Core/Src/main.c **** /* Private user code ---------------------------------------------------------*/
  78:Core/Src/main.c **** /* USER CODE BEGIN 0 */
  79:Core/Src/main.c **** 
  80:Core/Src/main.c **** /* USER CODE END 0 */
  81:Core/Src/main.c **** 
  82:Core/Src/main.c **** /**
  83:Core/Src/main.c ****   * @brief  The application entry point.
  84:Core/Src/main.c ****   * @retval int
  85:Core/Src/main.c ****   */
  86:Core/Src/main.c **** int main(void)
  87:Core/Src/main.c **** {
  88:Core/Src/main.c **** 
  89:Core/Src/main.c ****   /* USER CODE BEGIN 1 */
  90:Core/Src/main.c **** 
ARM GAS  C:\Users\admin\AppData\Local\Temp\ccfrlj1c.s 			page 3


  91:Core/Src/main.c ****   /* USER CODE END 1 */
  92:Core/Src/main.c **** 
  93:Core/Src/main.c ****   /* MCU Configuration--------------------------------------------------------*/
  94:Core/Src/main.c **** 
  95:Core/Src/main.c ****   /* Reset of all peripherals, Initializes the Flash interface and the Systick. */
  96:Core/Src/main.c ****   HAL_Init();
  97:Core/Src/main.c **** 
  98:Core/Src/main.c ****   /* USER CODE BEGIN Init */
  99:Core/Src/main.c **** 
 100:Core/Src/main.c ****   /* USER CODE END Init */
 101:Core/Src/main.c **** 
 102:Core/Src/main.c ****   /* Configure the system clock */
 103:Core/Src/main.c ****   SystemClock_Config();
 104:Core/Src/main.c **** 
 105:Core/Src/main.c ****   /* USER CODE BEGIN SysInit */
 106:Core/Src/main.c **** 
 107:Core/Src/main.c ****   /* USER CODE END SysInit */
 108:Core/Src/main.c **** 
 109:Core/Src/main.c ****   /* Initialize all configured peripherals */
 110:Core/Src/main.c ****   MX_GPIO_Init();
 111:Core/Src/main.c ****   /* USER CODE BEGIN 2 */
 112:Core/Src/main.c ****   /* USER CODE END 2 */
 113:Core/Src/main.c **** 
 114:Core/Src/main.c ****   /* Infinite loop */
 115:Core/Src/main.c ****   /* USER CODE BEGIN WHILE */
 116:Core/Src/main.c ****   while (1)
 117:Core/Src/main.c ****   {
 118:Core/Src/main.c ****     /* USER CODE END WHILE */
 119:Core/Src/main.c **** 
 120:Core/Src/main.c ****     /* USER CODE BEGIN 3 */
 121:Core/Src/main.c **** 
 122:Core/Src/main.c **** 	  for (int i = 0; i < 5; i++) {
 123:Core/Src/main.c **** 		  int width = widths[i];
 124:Core/Src/main.c **** 		  int height = heights[i];
 125:Core/Src/main.c **** 
 126:Core/Src/main.c **** 		  //TODO: Turn on LED 0 to signify the start of the operation
 127:Core/Src/main.c **** 		  HAL_GPIO_WritePin(GPIOB, GPIO_PIN_0, GPIO_PIN_SET);
 128:Core/Src/main.c **** 
 129:Core/Src/main.c **** 
 130:Core/Src/main.c **** 		  //TODO: Record the start time
 131:Core/Src/main.c **** 		  start_time = HAL_GetTick();
 132:Core/Src/main.c **** 
 133:Core/Src/main.c **** 
 134:Core/Src/main.c **** 		  //TODO: Call the Mandelbrot Function and store the output in the checksum variable defined init
 135:Core/Src/main.c **** 		   checksum = calculate_mandelbrot_fixed_point_arithmetic(width, height, MAX_ITER);
 136:Core/Src/main.c **** 		   checksums[i] = checksum;
 137:Core/Src/main.c **** 		  //TODO: Record the end time
 138:Core/Src/main.c **** 
 139:Core/Src/main.c **** 		  end_time = HAL_GetTick();
 140:Core/Src/main.c **** 		  //TODO: Calculate the execution time
 141:Core/Src/main.c **** 		  execution_time = end_time - start_time;
 142:Core/Src/main.c **** 		  execTimes[i] = execution_time;
 143:Core/Src/main.c **** 
 144:Core/Src/main.c **** 		  //TODO: Turn on LED 1 to signify the end of the operation
 145:Core/Src/main.c **** 		  HAL_GPIO_WritePin(GPIOB, GPIO_PIN_1, GPIO_PIN_SET);
 146:Core/Src/main.c **** 
 147:Core/Src/main.c **** 		  totalPixels = (uint64_t)width * height;
ARM GAS  C:\Users\admin\AppData\Local\Temp\ccfrlj1c.s 			page 4


 148:Core/Src/main.c **** 		  executionSec = (double)execution_time / 1000.0;
 149:Core/Src/main.c **** 		  throughput = (double)totalPixels/executionSec;
 150:Core/Src/main.c **** 		  throughputs[i] = throughput;
 151:Core/Src/main.c **** 		  //TODO: Hold the LEDs on for a 1s delay
 152:Core/Src/main.c **** 		  HAL_Delay(2000);
 153:Core/Src/main.c **** 
 154:Core/Src/main.c **** 		  //TODO: Turn off the LEDs
 155:Core/Src/main.c **** 		  HAL_GPIO_WritePin(GPIOB, GPIO_PIN_0, GPIO_PIN_RESET);
 156:Core/Src/main.c **** 		  HAL_GPIO_WritePin(GPIOB, GPIO_PIN_1, GPIO_PIN_RESET);
 157:Core/Src/main.c **** 	  }
 158:Core/Src/main.c **** 
 159:Core/Src/main.c ****   }
 160:Core/Src/main.c ****   /* USER CODE END 3 */
 161:Core/Src/main.c **** }
 162:Core/Src/main.c **** 
 163:Core/Src/main.c **** /**
 164:Core/Src/main.c ****   * @brief System Clock Configuration
 165:Core/Src/main.c ****   * @retval None
 166:Core/Src/main.c ****   */
 167:Core/Src/main.c **** void SystemClock_Config(void)
 168:Core/Src/main.c **** {
 169:Core/Src/main.c ****   RCC_OscInitTypeDef RCC_OscInitStruct = {0};
 170:Core/Src/main.c ****   RCC_ClkInitTypeDef RCC_ClkInitStruct = {0};
 171:Core/Src/main.c **** 
 172:Core/Src/main.c ****   /** Initializes the RCC Oscillators according to the specified parameters
 173:Core/Src/main.c ****   * in the RCC_OscInitTypeDef structure.
 174:Core/Src/main.c ****   */
 175:Core/Src/main.c ****   RCC_OscInitStruct.OscillatorType = RCC_OSCILLATORTYPE_HSI;
 176:Core/Src/main.c ****   RCC_OscInitStruct.HSIState = RCC_HSI_ON;
 177:Core/Src/main.c ****   RCC_OscInitStruct.HSICalibrationValue = RCC_HSICALIBRATION_DEFAULT;
 178:Core/Src/main.c ****   RCC_OscInitStruct.PLL.PLLState = RCC_PLL_ON;
 179:Core/Src/main.c ****   RCC_OscInitStruct.PLL.PLLSource = RCC_PLLSOURCE_HSI;
 180:Core/Src/main.c ****   RCC_OscInitStruct.PLL.PLLMUL = RCC_PLL_MUL12;
 181:Core/Src/main.c ****   RCC_OscInitStruct.PLL.PREDIV = RCC_PREDIV_DIV1;
 182:Core/Src/main.c ****   if (HAL_RCC_OscConfig(&RCC_OscInitStruct) != HAL_OK)
 183:Core/Src/main.c ****   {
 184:Core/Src/main.c ****     Error_Handler();
 185:Core/Src/main.c ****   }
 186:Core/Src/main.c **** 
 187:Core/Src/main.c ****   /** Initializes the CPU, AHB and APB buses clocks
 188:Core/Src/main.c ****   */
 189:Core/Src/main.c ****   RCC_ClkInitStruct.ClockType = RCC_CLOCKTYPE_HCLK|RCC_CLOCKTYPE_SYSCLK
 190:Core/Src/main.c ****                               |RCC_CLOCKTYPE_PCLK1;
 191:Core/Src/main.c ****   RCC_ClkInitStruct.SYSCLKSource = RCC_SYSCLKSOURCE_PLLCLK;
 192:Core/Src/main.c ****   RCC_ClkInitStruct.AHBCLKDivider = RCC_SYSCLK_DIV1;
 193:Core/Src/main.c ****   RCC_ClkInitStruct.APB1CLKDivider = RCC_HCLK_DIV1;
 194:Core/Src/main.c **** 
 195:Core/Src/main.c ****   if (HAL_RCC_ClockConfig(&RCC_ClkInitStruct, FLASH_LATENCY_1) != HAL_OK)
 196:Core/Src/main.c ****   {
 197:Core/Src/main.c ****     Error_Handler();
 198:Core/Src/main.c ****   }
 199:Core/Src/main.c **** }
 200:Core/Src/main.c **** 
 201:Core/Src/main.c **** /**
 202:Core/Src/main.c ****   * @brief GPIO Initialization Function
 203:Core/Src/main.c ****   * @param None
 204:Core/Src/main.c ****   * @retval None
ARM GAS  C:\Users\admin\AppData\Local\Temp\ccfrlj1c.s 			page 5


 205:Core/Src/main.c ****   */
 206:Core/Src/main.c **** static void MX_GPIO_Init(void)
 207:Core/Src/main.c **** {
  26              		.loc 1 207 1 view -0
  27              		.cfi_startproc
  28              		@ args = 0, pretend = 0, frame = 32
  29              		@ frame_needed = 0, uses_anonymous_args = 0
  30 0000 10B5     		push	{r4, lr}
  31              	.LCFI0:
  32              		.cfi_def_cfa_offset 8
  33              		.cfi_offset 4, -8
  34              		.cfi_offset 14, -4
  35 0002 88B0     		sub	sp, sp, #32
  36              	.LCFI1:
  37              		.cfi_def_cfa_offset 40
 208:Core/Src/main.c ****   GPIO_InitTypeDef GPIO_InitStruct = {0};
  38              		.loc 1 208 3 view .LVU1
  39              		.loc 1 208 20 is_stmt 0 view .LVU2
  40 0004 1422     		movs	r2, #20
  41 0006 0021     		movs	r1, #0
  42 0008 03A8     		add	r0, sp, #12
  43 000a FFF7FEFF 		bl	memset
  44              	.LVL0:
 209:Core/Src/main.c ****   /* USER CODE BEGIN MX_GPIO_Init_1 */
 210:Core/Src/main.c **** 
 211:Core/Src/main.c ****   /* USER CODE END MX_GPIO_Init_1 */
 212:Core/Src/main.c **** 
 213:Core/Src/main.c ****   /* GPIO Ports Clock Enable */
 214:Core/Src/main.c ****   __HAL_RCC_GPIOF_CLK_ENABLE();
  45              		.loc 1 214 3 is_stmt 1 view .LVU3
  46              	.LBB4:
  47              		.loc 1 214 3 view .LVU4
  48              		.loc 1 214 3 view .LVU5
  49 000e 174B     		ldr	r3, .L2
  50 0010 5A69     		ldr	r2, [r3, #20]
  51 0012 8021     		movs	r1, #128
  52 0014 C903     		lsls	r1, r1, #15
  53 0016 0A43     		orrs	r2, r1
  54 0018 5A61     		str	r2, [r3, #20]
  55              		.loc 1 214 3 view .LVU6
  56 001a 5A69     		ldr	r2, [r3, #20]
  57 001c 0A40     		ands	r2, r1
  58 001e 0092     		str	r2, [sp]
  59              		.loc 1 214 3 view .LVU7
  60 0020 009A     		ldr	r2, [sp]
  61              	.LBE4:
  62              		.loc 1 214 3 view .LVU8
 215:Core/Src/main.c ****   __HAL_RCC_GPIOB_CLK_ENABLE();
  63              		.loc 1 215 3 view .LVU9
  64              	.LBB5:
  65              		.loc 1 215 3 view .LVU10
  66              		.loc 1 215 3 view .LVU11
  67 0022 5A69     		ldr	r2, [r3, #20]
  68 0024 8021     		movs	r1, #128
  69 0026 C902     		lsls	r1, r1, #11
  70 0028 0A43     		orrs	r2, r1
  71 002a 5A61     		str	r2, [r3, #20]
ARM GAS  C:\Users\admin\AppData\Local\Temp\ccfrlj1c.s 			page 6


  72              		.loc 1 215 3 view .LVU12
  73 002c 5A69     		ldr	r2, [r3, #20]
  74 002e 0A40     		ands	r2, r1
  75 0030 0192     		str	r2, [sp, #4]
  76              		.loc 1 215 3 view .LVU13
  77 0032 019A     		ldr	r2, [sp, #4]
  78              	.LBE5:
  79              		.loc 1 215 3 view .LVU14
 216:Core/Src/main.c ****   __HAL_RCC_GPIOA_CLK_ENABLE();
  80              		.loc 1 216 3 view .LVU15
  81              	.LBB6:
  82              		.loc 1 216 3 view .LVU16
  83              		.loc 1 216 3 view .LVU17
  84 0034 5A69     		ldr	r2, [r3, #20]
  85 0036 8021     		movs	r1, #128
  86 0038 8902     		lsls	r1, r1, #10
  87 003a 0A43     		orrs	r2, r1
  88 003c 5A61     		str	r2, [r3, #20]
  89              		.loc 1 216 3 view .LVU18
  90 003e 5B69     		ldr	r3, [r3, #20]
  91 0040 0B40     		ands	r3, r1
  92 0042 0293     		str	r3, [sp, #8]
  93              		.loc 1 216 3 view .LVU19
  94 0044 029B     		ldr	r3, [sp, #8]
  95              	.LBE6:
  96              		.loc 1 216 3 view .LVU20
 217:Core/Src/main.c **** 
 218:Core/Src/main.c ****   /*Configure GPIO pin Output Level */
 219:Core/Src/main.c ****   HAL_GPIO_WritePin(GPIOB, GPIO_PIN_0|GPIO_PIN_1|GPIO_PIN_2|GPIO_PIN_3
  97              		.loc 1 219 3 view .LVU21
  98 0046 0A4C     		ldr	r4, .L2+4
  99 0048 0022     		movs	r2, #0
 100 004a FF21     		movs	r1, #255
 101 004c 2000     		movs	r0, r4
 102 004e FFF7FEFF 		bl	HAL_GPIO_WritePin
 103              	.LVL1:
 220:Core/Src/main.c ****                           |GPIO_PIN_4|GPIO_PIN_5|GPIO_PIN_6|GPIO_PIN_7, GPIO_PIN_RESET);
 221:Core/Src/main.c **** 
 222:Core/Src/main.c ****   /*Configure GPIO pins : PB0 PB1 PB2 PB3
 223:Core/Src/main.c ****                            PB4 PB5 PB6 PB7 */
 224:Core/Src/main.c ****   GPIO_InitStruct.Pin = GPIO_PIN_0|GPIO_PIN_1|GPIO_PIN_2|GPIO_PIN_3
 104              		.loc 1 224 3 view .LVU22
 105              		.loc 1 224 23 is_stmt 0 view .LVU23
 106 0052 FF23     		movs	r3, #255
 107 0054 0393     		str	r3, [sp, #12]
 225:Core/Src/main.c ****                           |GPIO_PIN_4|GPIO_PIN_5|GPIO_PIN_6|GPIO_PIN_7;
 226:Core/Src/main.c ****   GPIO_InitStruct.Mode = GPIO_MODE_OUTPUT_PP;
 108              		.loc 1 226 3 is_stmt 1 view .LVU24
 109              		.loc 1 226 24 is_stmt 0 view .LVU25
 110 0056 FE3B     		subs	r3, r3, #254
 111 0058 0493     		str	r3, [sp, #16]
 227:Core/Src/main.c ****   GPIO_InitStruct.Pull = GPIO_NOPULL;
 112              		.loc 1 227 3 is_stmt 1 view .LVU26
 113              		.loc 1 227 24 is_stmt 0 view .LVU27
 114 005a 0023     		movs	r3, #0
 115 005c 0593     		str	r3, [sp, #20]
 228:Core/Src/main.c ****   GPIO_InitStruct.Speed = GPIO_SPEED_FREQ_LOW;
ARM GAS  C:\Users\admin\AppData\Local\Temp\ccfrlj1c.s 			page 7


 116              		.loc 1 228 3 is_stmt 1 view .LVU28
 117              		.loc 1 228 25 is_stmt 0 view .LVU29
 118 005e 0693     		str	r3, [sp, #24]
 229:Core/Src/main.c ****   HAL_GPIO_Init(GPIOB, &GPIO_InitStruct);
 119              		.loc 1 229 3 is_stmt 1 view .LVU30
 120 0060 03A9     		add	r1, sp, #12
 121 0062 2000     		movs	r0, r4
 122 0064 FFF7FEFF 		bl	HAL_GPIO_Init
 123              	.LVL2:
 230:Core/Src/main.c **** 
 231:Core/Src/main.c ****   /* USER CODE BEGIN MX_GPIO_Init_2 */
 232:Core/Src/main.c **** 
 233:Core/Src/main.c ****   /* USER CODE END MX_GPIO_Init_2 */
 234:Core/Src/main.c **** }
 124              		.loc 1 234 1 is_stmt 0 view .LVU31
 125 0068 08B0     		add	sp, sp, #32
 126              		@ sp needed
 127 006a 10BD     		pop	{r4, pc}
 128              	.L3:
 129              		.align	2
 130              	.L2:
 131 006c 00100240 		.word	1073876992
 132 0070 00040048 		.word	1207960576
 133              		.cfi_endproc
 134              	.LFE42:
 136              		.global	__aeabi_idiv
 137              		.global	__aeabi_i2d
 138              		.global	__aeabi_dmul
 139              		.global	__aeabi_ddiv
 140              		.global	__aeabi_dsub
 141              		.global	__aeabi_d2iz
 142              		.section	.text.calculate_mandelbrot_fixed_point_arithmetic,"ax",%progbits
 143              		.align	1
 144              		.global	calculate_mandelbrot_fixed_point_arithmetic
 145              		.syntax unified
 146              		.code	16
 147              		.thumb_func
 149              	calculate_mandelbrot_fixed_point_arithmetic:
 150              	.LVL3:
 151              	.LFB43:
 235:Core/Src/main.c **** 
 236:Core/Src/main.c **** /* USER CODE BEGIN 4 */
 237:Core/Src/main.c **** //TODO: Function signatures you defined previously , implement them here
 238:Core/Src/main.c **** 
 239:Core/Src/main.c **** /* USER CODE END 4 */
 240:Core/Src/main.c **** 
 241:Core/Src/main.c **** /**
 242:Core/Src/main.c ****   * @brief  This function is executed in case of error occurrence.
 243:Core/Src/main.c ****   * @retval None
 244:Core/Src/main.c ****   */
 245:Core/Src/main.c **** 
 246:Core/Src/main.c **** uint64_t calculate_mandelbrot_fixed_point_arithmetic(int width, int height, int max_iterations){
 152              		.loc 1 246 96 is_stmt 1 view -0
 153              		.cfi_startproc
 154              		@ args = 0, pretend = 0, frame = 16
 155              		@ frame_needed = 0, uses_anonymous_args = 0
 156              		.loc 1 246 96 is_stmt 0 view .LVU33
ARM GAS  C:\Users\admin\AppData\Local\Temp\ccfrlj1c.s 			page 8


 157 0000 F0B5     		push	{r4, r5, r6, r7, lr}
 158              	.LCFI2:
 159              		.cfi_def_cfa_offset 20
 160              		.cfi_offset 4, -20
 161              		.cfi_offset 5, -16
 162              		.cfi_offset 6, -12
 163              		.cfi_offset 7, -8
 164              		.cfi_offset 14, -4
 165 0002 DE46     		mov	lr, fp
 166 0004 5746     		mov	r7, r10
 167 0006 4E46     		mov	r6, r9
 168 0008 4546     		mov	r5, r8
 169 000a E0B5     		push	{r5, r6, r7, lr}
 170              	.LCFI3:
 171              		.cfi_def_cfa_offset 36
 172              		.cfi_offset 8, -36
 173              		.cfi_offset 9, -32
 174              		.cfi_offset 10, -28
 175              		.cfi_offset 11, -24
 176 000c 85B0     		sub	sp, sp, #20
 177              	.LCFI4:
 178              		.cfi_def_cfa_offset 56
 179 000e 8046     		mov	r8, r0
 180 0010 1600     		movs	r6, r2
 247:Core/Src/main.c ****   uint64_t mandelbrot_sum = 0;
 181              		.loc 1 247 3 is_stmt 1 view .LVU34
 182              	.LVL4:
 248:Core/Src/main.c ****     //TODO: Complete the function implementation
 249:Core/Src/main.c ****     int x0, xi;
 183              		.loc 1 249 5 view .LVU35
 250:Core/Src/main.c ****     int y0, yi;
 184              		.loc 1 250 5 view .LVU36
 251:Core/Src/main.c ****     int temp;
 185              		.loc 1 251 5 view .LVU37
 252:Core/Src/main.c ****     int iterations;
 186              		.loc 1 252 5 view .LVU38
 253:Core/Src/main.c **** 
 254:Core/Src/main.c **** 	#define FixedShift 16
 255:Core/Src/main.c **** 	#define fixed_1 (1 << FixedShift)
 256:Core/Src/main.c **** 
 257:Core/Src/main.c ****     for (int y = 0; y < height; y++) {
 187              		.loc 1 257 5 view .LVU39
 188              	.LBB7:
 189              		.loc 1 257 10 view .LVU40
 190              		.loc 1 257 14 is_stmt 0 view .LVU41
 191 0012 0025     		movs	r5, #0
 192              	.LBE7:
 247:Core/Src/main.c ****     //TODO: Complete the function implementation
 193              		.loc 1 247 12 view .LVU42
 194 0014 0022     		movs	r2, #0
 195              	.LVL5:
 247:Core/Src/main.c ****     //TODO: Complete the function implementation
 196              		.loc 1 247 12 view .LVU43
 197 0016 0023     		movs	r3, #0
 198 0018 0292     		str	r2, [sp, #8]
 199 001a 0393     		str	r3, [sp, #12]
 200 001c 0F00     		movs	r7, r1
ARM GAS  C:\Users\admin\AppData\Local\Temp\ccfrlj1c.s 			page 9


 201 001e 3400     		movs	r4, r6
 202              	.LBB10:
 203              		.loc 1 257 5 view .LVU44
 204 0020 3DE0     		b	.L5
 205              	.LVL6:
 206              	.L8:
 207              	.LBB8:
 258:Core/Src/main.c ****     	y0 = ((y * (2 * fixed_1)) / height) - (fixed_1 * 1);
 259:Core/Src/main.c ****     	for (int x = 0; x < width; x++){
 260:Core/Src/main.c ****     		x0 = ((x * (3.5 * fixed_1)) / width) - (fixed_1 * 2.5);
 261:Core/Src/main.c **** 
 262:Core/Src/main.c **** 
 263:Core/Src/main.c ****     		xi = 0;
 264:Core/Src/main.c ****     		yi = 0;
 265:Core/Src/main.c **** 
 266:Core/Src/main.c ****     		iterations = 0;
 267:Core/Src/main.c **** 
 268:Core/Src/main.c ****     		while ((iterations < max_iterations) && (((xi * xi) >> FixedShift) + ((yi * yi) >> FixedShift
 269:Core/Src/main.c ****     			temp = ((xi * xi) >> FixedShift) - ((yi * yi) >> FixedShift) + x0;
 270:Core/Src/main.c ****     			yi = (((2 * xi * yi) >> FixedShift) + y0);
 271:Core/Src/main.c ****     			xi = temp;
 272:Core/Src/main.c ****     			iterations++;
 273:Core/Src/main.c ****     		}
 274:Core/Src/main.c **** 
 275:Core/Src/main.c ****     		mandelbrot_sum += iterations;
 208              		.loc 1 275 7 is_stmt 1 view .LVU45
 209              		.loc 1 275 22 is_stmt 0 view .LVU46
 210 0022 0097     		str	r7, [sp]
 211 0024 FB17     		asrs	r3, r7, #31
 212              	.LVL7:
 213              		.loc 1 275 22 view .LVU47
 214 0026 0193     		str	r3, [sp, #4]
 215 0028 029A     		ldr	r2, [sp, #8]
 216 002a 039B     		ldr	r3, [sp, #12]
 217 002c 0098     		ldr	r0, [sp]
 218 002e 0199     		ldr	r1, [sp, #4]
 219              	.LVL8:
 220              		.loc 1 275 22 view .LVU48
 221 0030 1218     		adds	r2, r2, r0
 222 0032 4B41     		adcs	r3, r3, r1
 223 0034 0292     		str	r2, [sp, #8]
 224 0036 0393     		str	r3, [sp, #12]
 225              	.LVL9:
 259:Core/Src/main.c ****     		x0 = ((x * (3.5 * fixed_1)) / width) - (fixed_1 * 2.5);
 226              		.loc 1 259 34 is_stmt 1 discriminator 2 view .LVU49
 227 0038 0123     		movs	r3, #1
 228 003a 9C46     		mov	ip, r3
 229 003c E344     		add	fp, fp, ip
 230              	.LVL10:
 231              	.L6:
 259:Core/Src/main.c ****     		x0 = ((x * (3.5 * fixed_1)) / width) - (fixed_1 * 2.5);
 232              		.loc 1 259 24 discriminator 1 view .LVU50
 233 003e C345     		cmp	fp, r8
 234 0040 2ADA     		bge	.L12
 260:Core/Src/main.c **** 
 235              		.loc 1 260 7 view .LVU51
 260:Core/Src/main.c **** 
ARM GAS  C:\Users\admin\AppData\Local\Temp\ccfrlj1c.s 			page 10


 236              		.loc 1 260 16 is_stmt 0 view .LVU52
 237 0042 5846     		mov	r0, fp
 238 0044 FFF7FEFF 		bl	__aeabi_i2d
 239              	.LVL11:
 240 0048 0022     		movs	r2, #0
 241 004a 204B     		ldr	r3, .L14
 242 004c FFF7FEFF 		bl	__aeabi_dmul
 243              	.LVL12:
 244 0050 0600     		movs	r6, r0
 245 0052 0F00     		movs	r7, r1
 260:Core/Src/main.c **** 
 246              		.loc 1 260 35 view .LVU53
 247 0054 4046     		mov	r0, r8
 248 0056 FFF7FEFF 		bl	__aeabi_i2d
 249              	.LVL13:
 250 005a 0200     		movs	r2, r0
 251 005c 0B00     		movs	r3, r1
 252 005e 3000     		movs	r0, r6
 253 0060 3900     		movs	r1, r7
 254 0062 FFF7FEFF 		bl	__aeabi_ddiv
 255              	.LVL14:
 260:Core/Src/main.c **** 
 256              		.loc 1 260 44 view .LVU54
 257 0066 0022     		movs	r2, #0
 258 0068 194B     		ldr	r3, .L14+4
 259 006a FFF7FEFF 		bl	__aeabi_dsub
 260              	.LVL15:
 260:Core/Src/main.c **** 
 261              		.loc 1 260 10 view .LVU55
 262 006e FFF7FEFF 		bl	__aeabi_d2iz
 263              	.LVL16:
 263:Core/Src/main.c ****     		yi = 0;
 264              		.loc 1 263 7 is_stmt 1 view .LVU56
 264:Core/Src/main.c **** 
 265              		.loc 1 264 7 view .LVU57
 266:Core/Src/main.c **** 
 266              		.loc 1 266 7 view .LVU58
 268:Core/Src/main.c ****     			temp = ((xi * xi) >> FixedShift) - ((yi * yi) >> FixedShift) + x0;
 267              		.loc 1 268 7 view .LVU59
 266:Core/Src/main.c **** 
 268              		.loc 1 266 18 is_stmt 0 view .LVU60
 269 0072 0027     		movs	r7, #0
 264:Core/Src/main.c **** 
 270              		.loc 1 264 10 view .LVU61
 271 0074 0021     		movs	r1, #0
 263:Core/Src/main.c ****     		yi = 0;
 272              		.loc 1 263 10 view .LVU62
 273 0076 0023     		movs	r3, #0
 274              	.LVL17:
 275              	.L7:
 268:Core/Src/main.c ****     			temp = ((xi * xi) >> FixedShift) - ((yi * yi) >> FixedShift) + x0;
 276              		.loc 1 268 44 is_stmt 1 view .LVU63
 277 0078 A742     		cmp	r7, r4
 278 007a D2DA     		bge	.L8
 268:Core/Src/main.c ****     			temp = ((xi * xi) >> FixedShift) - ((yi * yi) >> FixedShift) + x0;
 279              		.loc 1 268 53 is_stmt 0 discriminator 1 view .LVU64
 280 007c 1A00     		movs	r2, r3
ARM GAS  C:\Users\admin\AppData\Local\Temp\ccfrlj1c.s 			page 11


 281 007e 5A43     		muls	r2, r3
 268:Core/Src/main.c ****     			temp = ((xi * xi) >> FixedShift) - ((yi * yi) >> FixedShift) + x0;
 282              		.loc 1 268 59 discriminator 1 view .LVU65
 283 0080 1214     		asrs	r2, r2, #16
 268:Core/Src/main.c ****     			temp = ((xi * xi) >> FixedShift) - ((yi * yi) >> FixedShift) + x0;
 284              		.loc 1 268 81 discriminator 1 view .LVU66
 285 0082 0E00     		movs	r6, r1
 286 0084 4E43     		muls	r6, r1
 268:Core/Src/main.c ****     			temp = ((xi * xi) >> FixedShift) - ((yi * yi) >> FixedShift) + x0;
 287              		.loc 1 268 87 discriminator 1 view .LVU67
 288 0086 3614     		asrs	r6, r6, #16
 269:Core/Src/main.c ****     			yi = (((2 * xi * yi) >> FixedShift) + y0);
 289              		.loc 1 269 8 is_stmt 1 view .LVU68
 269:Core/Src/main.c ****     			yi = (((2 * xi * yi) >> FixedShift) + y0);
 290              		.loc 1 269 41 is_stmt 0 view .LVU69
 291 0088 921B     		subs	r2, r2, r6
 292              	.LVL18:
 270:Core/Src/main.c ****     			xi = temp;
 293              		.loc 1 270 8 is_stmt 1 view .LVU70
 270:Core/Src/main.c ****     			xi = temp;
 294              		.loc 1 270 23 is_stmt 0 view .LVU71
 295 008a 4B43     		muls	r3, r1
 296              	.LVL19:
 270:Core/Src/main.c ****     			xi = temp;
 297              		.loc 1 270 23 view .LVU72
 298 008c 5B00     		lsls	r3, r3, #1
 270:Core/Src/main.c ****     			xi = temp;
 299              		.loc 1 270 29 view .LVU73
 300 008e 1B14     		asrs	r3, r3, #16
 270:Core/Src/main.c ****     			xi = temp;
 301              		.loc 1 270 11 view .LVU74
 302 0090 5919     		adds	r1, r3, r5
 303              	.LVL20:
 271:Core/Src/main.c ****     			iterations++;
 304              		.loc 1 271 8 is_stmt 1 view .LVU75
 272:Core/Src/main.c ****     		}
 305              		.loc 1 272 8 view .LVU76
 272:Core/Src/main.c ****     		}
 306              		.loc 1 272 18 is_stmt 0 view .LVU77
 307 0092 0137     		adds	r7, r7, #1
 308              	.LVL21:
 271:Core/Src/main.c ****     			iterations++;
 309              		.loc 1 271 11 view .LVU78
 310 0094 1318     		adds	r3, r2, r0
 311              	.LVL22:
 271:Core/Src/main.c ****     			iterations++;
 312              		.loc 1 271 11 view .LVU79
 313 0096 EFE7     		b	.L7
 314              	.LVL23:
 315              	.L12:
 271:Core/Src/main.c ****     			iterations++;
 316              		.loc 1 271 11 view .LVU80
 317              	.LBE8:
 257:Core/Src/main.c ****     	y0 = ((y * (2 * fixed_1)) / height) - (fixed_1 * 1);
 318              		.loc 1 257 34 discriminator 2 view .LVU81
 319 0098 4D46     		mov	r5, r9
 320              	.LVL24:
ARM GAS  C:\Users\admin\AppData\Local\Temp\ccfrlj1c.s 			page 12


 257:Core/Src/main.c ****     	y0 = ((y * (2 * fixed_1)) / height) - (fixed_1 * 1);
 321              		.loc 1 257 34 discriminator 2 view .LVU82
 322 009a 5746     		mov	r7, r10
 257:Core/Src/main.c ****     	y0 = ((y * (2 * fixed_1)) / height) - (fixed_1 * 1);
 323              		.loc 1 257 34 is_stmt 1 discriminator 2 view .LVU83
 324 009c 0135     		adds	r5, r5, #1
 325              	.LVL25:
 326              	.L5:
 257:Core/Src/main.c ****     	y0 = ((y * (2 * fixed_1)) / height) - (fixed_1 * 1);
 327              		.loc 1 257 23 discriminator 1 view .LVU84
 328 009e BD42     		cmp	r5, r7
 329 00a0 0BDA     		bge	.L13
 258:Core/Src/main.c ****     	for (int x = 0; x < width; x++){
 330              		.loc 1 258 6 view .LVU85
 258:Core/Src/main.c ****     	for (int x = 0; x < width; x++){
 331              		.loc 1 258 15 is_stmt 0 view .LVU86
 332 00a2 6804     		lsls	r0, r5, #17
 258:Core/Src/main.c ****     	for (int x = 0; x < width; x++){
 333              		.loc 1 258 32 view .LVU87
 334 00a4 3900     		movs	r1, r7
 335 00a6 FFF7FEFF 		bl	__aeabi_idiv
 336              	.LVL26:
 258:Core/Src/main.c ****     	for (int x = 0; x < width; x++){
 337              		.loc 1 258 9 view .LVU88
 338 00aa 0A4B     		ldr	r3, .L14+8
 339 00ac C618     		adds	r6, r0, r3
 340              	.LVL27:
 259:Core/Src/main.c ****     		x0 = ((x * (3.5 * fixed_1)) / width) - (fixed_1 * 2.5);
 341              		.loc 1 259 6 is_stmt 1 view .LVU89
 342              	.LBB9:
 259:Core/Src/main.c ****     		x0 = ((x * (3.5 * fixed_1)) / width) - (fixed_1 * 2.5);
 343              		.loc 1 259 11 view .LVU90
 259:Core/Src/main.c ****     		x0 = ((x * (3.5 * fixed_1)) / width) - (fixed_1 * 2.5);
 344              		.loc 1 259 15 is_stmt 0 view .LVU91
 345 00ae 0023     		movs	r3, #0
 346 00b0 9B46     		mov	fp, r3
 347 00b2 A946     		mov	r9, r5
 348 00b4 3500     		movs	r5, r6
 349              	.LVL28:
 259:Core/Src/main.c ****     		x0 = ((x * (3.5 * fixed_1)) / width) - (fixed_1 * 2.5);
 350              		.loc 1 259 15 view .LVU92
 351 00b6 BA46     		mov	r10, r7
 259:Core/Src/main.c ****     		x0 = ((x * (3.5 * fixed_1)) / width) - (fixed_1 * 2.5);
 352              		.loc 1 259 6 view .LVU93
 353 00b8 C1E7     		b	.L6
 354              	.LVL29:
 355              	.L13:
 259:Core/Src/main.c ****     		x0 = ((x * (3.5 * fixed_1)) / width) - (fixed_1 * 2.5);
 356              		.loc 1 259 6 view .LVU94
 357              	.LBE9:
 358              	.LBE10:
 276:Core/Src/main.c ****     	}
 277:Core/Src/main.c ****     }
 278:Core/Src/main.c **** 
 279:Core/Src/main.c ****     return mandelbrot_sum;
 359              		.loc 1 279 5 is_stmt 1 view .LVU95
 280:Core/Src/main.c **** 
ARM GAS  C:\Users\admin\AppData\Local\Temp\ccfrlj1c.s 			page 13


 281:Core/Src/main.c **** }
 360              		.loc 1 281 1 is_stmt 0 view .LVU96
 361 00ba 0298     		ldr	r0, [sp, #8]
 362 00bc 0399     		ldr	r1, [sp, #12]
 363 00be 05B0     		add	sp, sp, #20
 364              		@ sp needed
 365              	.LVL30:
 366              	.LVL31:
 367              	.LVL32:
 368              	.LVL33:
 369              		.loc 1 281 1 view .LVU97
 370 00c0 F0BC     		pop	{r4, r5, r6, r7}
 371 00c2 BB46     		mov	fp, r7
 372 00c4 B246     		mov	r10, r6
 373 00c6 A946     		mov	r9, r5
 374 00c8 A046     		mov	r8, r4
 375 00ca F0BD     		pop	{r4, r5, r6, r7, pc}
 376              	.L15:
 377              		.align	2
 378              	.L14:
 379 00cc 00000C41 		.word	1091305472
 380 00d0 00000441 		.word	1090781184
 381 00d4 0000FFFF 		.word	-65536
 382              		.cfi_endproc
 383              	.LFE43:
 385              		.global	__aeabi_dadd
 386              		.global	__aeabi_dcmplt
 387              		.section	.text.calculate_mandelbrot_double,"ax",%progbits
 388              		.align	1
 389              		.global	calculate_mandelbrot_double
 390              		.syntax unified
 391              		.code	16
 392              		.thumb_func
 394              	calculate_mandelbrot_double:
 395              	.LVL34:
 396              	.LFB44:
 282:Core/Src/main.c **** 
 283:Core/Src/main.c **** //TODO: Mandelbroat using variable type double
 284:Core/Src/main.c **** uint64_t calculate_mandelbrot_double(int width, int height, int max_iterations){
 397              		.loc 1 284 80 is_stmt 1 view -0
 398              		.cfi_startproc
 399              		@ args = 0, pretend = 0, frame = 64
 400              		@ frame_needed = 0, uses_anonymous_args = 0
 401              		.loc 1 284 80 is_stmt 0 view .LVU99
 402 0000 F0B5     		push	{r4, r5, r6, r7, lr}
 403              	.LCFI5:
 404              		.cfi_def_cfa_offset 20
 405              		.cfi_offset 4, -20
 406              		.cfi_offset 5, -16
 407              		.cfi_offset 6, -12
 408              		.cfi_offset 7, -8
 409              		.cfi_offset 14, -4
 410 0002 DE46     		mov	lr, fp
 411 0004 5746     		mov	r7, r10
 412 0006 4E46     		mov	r6, r9
 413 0008 4546     		mov	r5, r8
 414 000a E0B5     		push	{r5, r6, r7, lr}
ARM GAS  C:\Users\admin\AppData\Local\Temp\ccfrlj1c.s 			page 14


 415              	.LCFI6:
 416              		.cfi_def_cfa_offset 36
 417              		.cfi_offset 8, -36
 418              		.cfi_offset 9, -32
 419              		.cfi_offset 10, -28
 420              		.cfi_offset 11, -24
 421 000c 91B0     		sub	sp, sp, #68
 422              	.LCFI7:
 423              		.cfi_def_cfa_offset 104
 424 000e 0F91     		str	r1, [sp, #60]
 425 0010 9146     		mov	r9, r2
 285:Core/Src/main.c ****     uint64_t mandelbrot_sum = 0;
 426              		.loc 1 285 5 is_stmt 1 view .LVU100
 427              	.LVL35:
 286:Core/Src/main.c ****     //TODO: Complete the function implementation
 287:Core/Src/main.c ****     double x0, xi;
 428              		.loc 1 287 5 view .LVU101
 288:Core/Src/main.c ****     double y0, yi;
 429              		.loc 1 288 5 view .LVU102
 289:Core/Src/main.c ****     double temp;
 430              		.loc 1 289 5 view .LVU103
 290:Core/Src/main.c ****     int iterations;
 431              		.loc 1 290 5 view .LVU104
 291:Core/Src/main.c **** 
 292:Core/Src/main.c ****     for (int y = 0; y < height; y++) {
 432              		.loc 1 292 5 view .LVU105
 433              	.LBB11:
 434              		.loc 1 292 10 view .LVU106
 435              		.loc 1 292 14 is_stmt 0 view .LVU107
 436 0012 0023     		movs	r3, #0
 437 0014 0E93     		str	r3, [sp, #56]
 438              	.LBE11:
 285:Core/Src/main.c ****     //TODO: Complete the function implementation
 439              		.loc 1 285 14 view .LVU108
 440 0016 0023     		movs	r3, #0
 441 0018 0024     		movs	r4, #0
 442 001a 0C93     		str	r3, [sp, #48]
 443 001c 0D94     		str	r4, [sp, #52]
 444 001e 0B90     		str	r0, [sp, #44]
 445              	.LBB14:
 446              		.loc 1 292 5 view .LVU109
 447 0020 89E0     		b	.L17
 448              	.LVL36:
 449              	.L20:
 450              	.LBB12:
 293:Core/Src/main.c ****     	for (int x = 0; x < width; x++){
 294:Core/Src/main.c ****     		x0 = ((x / (double)width) * 3.5) - 2.5;
 295:Core/Src/main.c ****        		y0 = ((y / (double)height) * 2.0) - 1.0;
 296:Core/Src/main.c **** 
 297:Core/Src/main.c ****        		xi = 0.0;
 298:Core/Src/main.c ****        		yi = 0.0;
 299:Core/Src/main.c **** 
 300:Core/Src/main.c ****        		iterations = 0;
 301:Core/Src/main.c **** 
 302:Core/Src/main.c ****        		while ((iterations < max_iterations) && ((xi * xi + yi * yi) < 4.0)) {
 303:Core/Src/main.c ****        			temp = (xi * xi) - (yi * yi);
 451              		.loc 1 303 11 is_stmt 1 view .LVU110
ARM GAS  C:\Users\admin\AppData\Local\Temp\ccfrlj1c.s 			page 15


 452              		.loc 1 303 16 is_stmt 0 view .LVU111
 453 0022 029A     		ldr	r2, [sp, #8]
 454 0024 039B     		ldr	r3, [sp, #12]
 455 0026 0098     		ldr	r0, [sp]
 456 0028 0199     		ldr	r1, [sp, #4]
 457 002a FFF7FEFF 		bl	__aeabi_dsub
 458              	.LVL37:
 459 002e 0090     		str	r0, [sp]
 460 0030 0191     		str	r1, [sp, #4]
 461              	.LVL38:
 304:Core/Src/main.c ****        			yi = (2.0* xi * yi) + y0;
 462              		.loc 1 304 11 is_stmt 1 view .LVU112
 463              		.loc 1 304 20 is_stmt 0 view .LVU113
 464 0032 3200     		movs	r2, r6
 465 0034 3B00     		movs	r3, r7
 466 0036 3000     		movs	r0, r6
 467              	.LVL39:
 468              		.loc 1 304 20 view .LVU114
 469 0038 3900     		movs	r1, r7
 470 003a FFF7FEFF 		bl	__aeabi_dadd
 471              	.LVL40:
 472              		.loc 1 304 25 view .LVU115
 473 003e 2200     		movs	r2, r4
 474 0040 2B00     		movs	r3, r5
 475 0042 FFF7FEFF 		bl	__aeabi_dmul
 476              	.LVL41:
 477              		.loc 1 304 14 view .LVU116
 478 0046 069A     		ldr	r2, [sp, #24]
 479 0048 079B     		ldr	r3, [sp, #28]
 480 004a FFF7FEFF 		bl	__aeabi_dadd
 481              	.LVL42:
 482 004e 0400     		movs	r4, r0
 483              	.LVL43:
 484              		.loc 1 304 14 view .LVU117
 485 0050 0D00     		movs	r5, r1
 486              	.LVL44:
 305:Core/Src/main.c ****        			xi = temp + x0;
 487              		.loc 1 305 11 is_stmt 1 view .LVU118
 488              		.loc 1 305 14 is_stmt 0 view .LVU119
 489 0052 009A     		ldr	r2, [sp]
 490 0054 019B     		ldr	r3, [sp, #4]
 491 0056 0498     		ldr	r0, [sp, #16]
 492 0058 0599     		ldr	r1, [sp, #20]
 493 005a FFF7FEFF 		bl	__aeabi_dadd
 494              	.LVL45:
 495 005e 0600     		movs	r6, r0
 496              	.LVL46:
 497              		.loc 1 305 14 view .LVU120
 498 0060 0F00     		movs	r7, r1
 499              	.LVL47:
 306:Core/Src/main.c ****        			iterations++;
 500              		.loc 1 306 11 is_stmt 1 view .LVU121
 501              		.loc 1 306 21 is_stmt 0 view .LVU122
 502 0062 0123     		movs	r3, #1
 503 0064 9C46     		mov	ip, r3
 504 0066 E044     		add	r8, r8, ip
 505              	.LVL48:
ARM GAS  C:\Users\admin\AppData\Local\Temp\ccfrlj1c.s 			page 16


 506              	.L18:
 302:Core/Src/main.c ****        			temp = (xi * xi) - (yi * yi);
 507              		.loc 1 302 47 is_stmt 1 view .LVU123
 508 0068 C845     		cmp	r8, r9
 509 006a 1BDA     		bge	.L19
 302:Core/Src/main.c ****        			temp = (xi * xi) - (yi * yi);
 510              		.loc 1 302 55 is_stmt 0 discriminator 1 view .LVU124
 511 006c 3200     		movs	r2, r6
 512 006e 3B00     		movs	r3, r7
 513 0070 3000     		movs	r0, r6
 514 0072 3900     		movs	r1, r7
 515 0074 FFF7FEFF 		bl	__aeabi_dmul
 516              	.LVL49:
 517 0078 0090     		str	r0, [sp]
 518 007a 0191     		str	r1, [sp, #4]
 302:Core/Src/main.c ****        			temp = (xi * xi) - (yi * yi);
 519              		.loc 1 302 65 discriminator 1 view .LVU125
 520 007c 2200     		movs	r2, r4
 521 007e 2B00     		movs	r3, r5
 522 0080 2000     		movs	r0, r4
 523 0082 2900     		movs	r1, r5
 524 0084 FFF7FEFF 		bl	__aeabi_dmul
 525              	.LVL50:
 526 0088 0200     		movs	r2, r0
 527 008a 0B00     		movs	r3, r1
 528 008c 0292     		str	r2, [sp, #8]
 529 008e 0393     		str	r3, [sp, #12]
 302:Core/Src/main.c ****        			temp = (xi * xi) - (yi * yi);
 530              		.loc 1 302 60 discriminator 1 view .LVU126
 531 0090 0098     		ldr	r0, [sp]
 532 0092 0199     		ldr	r1, [sp, #4]
 533 0094 FFF7FEFF 		bl	__aeabi_dadd
 534              	.LVL51:
 302:Core/Src/main.c ****        			temp = (xi * xi) - (yi * yi);
 535              		.loc 1 302 47 discriminator 1 view .LVU127
 536 0098 0022     		movs	r2, #0
 537 009a 324B     		ldr	r3, .L26
 538 009c FFF7FEFF 		bl	__aeabi_dcmplt
 539              	.LVL52:
 540 00a0 0028     		cmp	r0, #0
 541 00a2 BED1     		bne	.L20
 542              	.L19:
 307:Core/Src/main.c ****        		}
 308:Core/Src/main.c **** 
 309:Core/Src/main.c ****        		mandelbrot_sum +=iterations;
 543              		.loc 1 309 10 is_stmt 1 view .LVU128
 544              		.loc 1 309 25 is_stmt 0 view .LVU129
 545 00a4 4346     		mov	r3, r8
 546 00a6 0893     		str	r3, [sp, #32]
 547 00a8 DB17     		asrs	r3, r3, #31
 548 00aa 0993     		str	r3, [sp, #36]
 549 00ac 0C9B     		ldr	r3, [sp, #48]
 550 00ae 0D9C     		ldr	r4, [sp, #52]
 551 00b0 0899     		ldr	r1, [sp, #32]
 552 00b2 099A     		ldr	r2, [sp, #36]
 553 00b4 5B18     		adds	r3, r3, r1
 554 00b6 5441     		adcs	r4, r4, r2
ARM GAS  C:\Users\admin\AppData\Local\Temp\ccfrlj1c.s 			page 17


 555 00b8 0C93     		str	r3, [sp, #48]
 556 00ba 0D94     		str	r4, [sp, #52]
 557              	.LVL53:
 293:Core/Src/main.c ****     		x0 = ((x / (double)width) * 3.5) - 2.5;
 558              		.loc 1 293 34 is_stmt 1 discriminator 2 view .LVU130
 559 00bc 0A9B     		ldr	r3, [sp, #40]
 560              	.LVL54:
 293:Core/Src/main.c ****     		x0 = ((x / (double)width) * 3.5) - 2.5;
 561              		.loc 1 293 34 is_stmt 0 discriminator 2 view .LVU131
 562 00be 0133     		adds	r3, r3, #1
 563 00c0 0A93     		str	r3, [sp, #40]
 564              	.LVL55:
 565              	.L22:
 293:Core/Src/main.c ****     		x0 = ((x / (double)width) * 3.5) - 2.5;
 566              		.loc 1 293 24 is_stmt 1 discriminator 1 view .LVU132
 567 00c2 0A9B     		ldr	r3, [sp, #40]
 568 00c4 0B9A     		ldr	r2, [sp, #44]
 569 00c6 9342     		cmp	r3, r2
 570 00c8 32DA     		bge	.L24
 294:Core/Src/main.c ****        		y0 = ((y / (double)height) * 2.0) - 1.0;
 571              		.loc 1 294 7 view .LVU133
 294:Core/Src/main.c ****        		y0 = ((y / (double)height) * 2.0) - 1.0;
 572              		.loc 1 294 18 is_stmt 0 view .LVU134
 573 00ca 0B98     		ldr	r0, [sp, #44]
 574 00cc FFF7FEFF 		bl	__aeabi_i2d
 575              	.LVL56:
 576 00d0 0400     		movs	r4, r0
 577 00d2 0D00     		movs	r5, r1
 294:Core/Src/main.c ****        		y0 = ((y / (double)height) * 2.0) - 1.0;
 578              		.loc 1 294 16 view .LVU135
 579 00d4 0A98     		ldr	r0, [sp, #40]
 580 00d6 FFF7FEFF 		bl	__aeabi_i2d
 581              	.LVL57:
 582 00da 2200     		movs	r2, r4
 583 00dc 2B00     		movs	r3, r5
 584 00de FFF7FEFF 		bl	__aeabi_ddiv
 585              	.LVL58:
 294:Core/Src/main.c ****        		y0 = ((y / (double)height) * 2.0) - 1.0;
 586              		.loc 1 294 33 view .LVU136
 587 00e2 0022     		movs	r2, #0
 588 00e4 204B     		ldr	r3, .L26+4
 589 00e6 FFF7FEFF 		bl	__aeabi_dmul
 590              	.LVL59:
 294:Core/Src/main.c ****        		y0 = ((y / (double)height) * 2.0) - 1.0;
 591              		.loc 1 294 10 view .LVU137
 592 00ea 0022     		movs	r2, #0
 593 00ec 1F4B     		ldr	r3, .L26+8
 594 00ee FFF7FEFF 		bl	__aeabi_dsub
 595              	.LVL60:
 596 00f2 0490     		str	r0, [sp, #16]
 597 00f4 0591     		str	r1, [sp, #20]
 598              	.LVL61:
 295:Core/Src/main.c **** 
 599              		.loc 1 295 10 is_stmt 1 view .LVU138
 295:Core/Src/main.c **** 
 600              		.loc 1 295 21 is_stmt 0 view .LVU139
 601 00f6 5046     		mov	r0, r10
ARM GAS  C:\Users\admin\AppData\Local\Temp\ccfrlj1c.s 			page 18


 602              	.LVL62:
 295:Core/Src/main.c **** 
 603              		.loc 1 295 21 view .LVU140
 604 00f8 FFF7FEFF 		bl	__aeabi_i2d
 605              	.LVL63:
 606 00fc 0400     		movs	r4, r0
 607 00fe 0D00     		movs	r5, r1
 295:Core/Src/main.c **** 
 608              		.loc 1 295 19 view .LVU141
 609 0100 5846     		mov	r0, fp
 610 0102 FFF7FEFF 		bl	__aeabi_i2d
 611              	.LVL64:
 612 0106 2200     		movs	r2, r4
 613 0108 2B00     		movs	r3, r5
 614 010a FFF7FEFF 		bl	__aeabi_ddiv
 615              	.LVL65:
 295:Core/Src/main.c **** 
 616              		.loc 1 295 37 view .LVU142
 617 010e 0200     		movs	r2, r0
 618 0110 0B00     		movs	r3, r1
 619 0112 FFF7FEFF 		bl	__aeabi_dadd
 620              	.LVL66:
 295:Core/Src/main.c **** 
 621              		.loc 1 295 13 view .LVU143
 622 0116 0022     		movs	r2, #0
 623 0118 154B     		ldr	r3, .L26+12
 624 011a FFF7FEFF 		bl	__aeabi_dsub
 625              	.LVL67:
 626 011e 0690     		str	r0, [sp, #24]
 627 0120 0791     		str	r1, [sp, #28]
 628              	.LVL68:
 297:Core/Src/main.c ****        		yi = 0.0;
 629              		.loc 1 297 10 is_stmt 1 view .LVU144
 298:Core/Src/main.c **** 
 630              		.loc 1 298 10 view .LVU145
 300:Core/Src/main.c **** 
 631              		.loc 1 300 10 view .LVU146
 302:Core/Src/main.c ****        			temp = (xi * xi) - (yi * yi);
 632              		.loc 1 302 10 view .LVU147
 300:Core/Src/main.c **** 
 633              		.loc 1 300 21 is_stmt 0 view .LVU148
 634 0122 0023     		movs	r3, #0
 635 0124 9846     		mov	r8, r3
 298:Core/Src/main.c **** 
 636              		.loc 1 298 13 view .LVU149
 637 0126 0024     		movs	r4, #0
 638 0128 0025     		movs	r5, #0
 297:Core/Src/main.c ****        		yi = 0.0;
 639              		.loc 1 297 13 view .LVU150
 640 012a 2600     		movs	r6, r4
 641 012c 2F00     		movs	r7, r5
 302:Core/Src/main.c ****        			temp = (xi * xi) - (yi * yi);
 642              		.loc 1 302 16 view .LVU151
 643 012e 9BE7     		b	.L18
 644              	.LVL69:
 645              	.L24:
 302:Core/Src/main.c ****        			temp = (xi * xi) - (yi * yi);
ARM GAS  C:\Users\admin\AppData\Local\Temp\ccfrlj1c.s 			page 19


 646              		.loc 1 302 16 view .LVU152
 647              	.LBE12:
 292:Core/Src/main.c ****     	for (int x = 0; x < width; x++){
 648              		.loc 1 292 34 is_stmt 1 discriminator 2 view .LVU153
 649 0130 0E9B     		ldr	r3, [sp, #56]
 650              	.LVL70:
 292:Core/Src/main.c ****     	for (int x = 0; x < width; x++){
 651              		.loc 1 292 34 is_stmt 0 discriminator 2 view .LVU154
 652 0132 0133     		adds	r3, r3, #1
 653 0134 0E93     		str	r3, [sp, #56]
 654              	.LVL71:
 655              	.L17:
 292:Core/Src/main.c ****     	for (int x = 0; x < width; x++){
 656              		.loc 1 292 23 is_stmt 1 discriminator 1 view .LVU155
 657 0136 0E9B     		ldr	r3, [sp, #56]
 658 0138 0F9A     		ldr	r2, [sp, #60]
 659 013a 9342     		cmp	r3, r2
 660 013c 08DA     		bge	.L25
 661              	.LBB13:
 293:Core/Src/main.c ****     		x0 = ((x / (double)width) * 3.5) - 2.5;
 662              		.loc 1 293 15 is_stmt 0 view .LVU156
 663 013e 0023     		movs	r3, #0
 664 0140 9A46     		mov	r10, r3
 665 0142 0E9B     		ldr	r3, [sp, #56]
 666 0144 9B46     		mov	fp, r3
 667 0146 5346     		mov	r3, r10
 668 0148 0A93     		str	r3, [sp, #40]
 669 014a 0F9B     		ldr	r3, [sp, #60]
 670 014c 9A46     		mov	r10, r3
 671 014e B8E7     		b	.L22
 672              	.LVL72:
 673              	.L25:
 293:Core/Src/main.c ****     		x0 = ((x / (double)width) * 3.5) - 2.5;
 674              		.loc 1 293 15 view .LVU157
 675              	.LBE13:
 676              	.LBE14:
 310:Core/Src/main.c ****        }
 311:Core/Src/main.c ****     }
 312:Core/Src/main.c ****     return mandelbrot_sum;
 677              		.loc 1 312 5 is_stmt 1 view .LVU158
 313:Core/Src/main.c **** }
 678              		.loc 1 313 1 is_stmt 0 view .LVU159
 679 0150 0C98     		ldr	r0, [sp, #48]
 680 0152 0D99     		ldr	r1, [sp, #52]
 681 0154 11B0     		add	sp, sp, #68
 682              		@ sp needed
 683              	.LVL73:
 684              		.loc 1 313 1 view .LVU160
 685 0156 F0BC     		pop	{r4, r5, r6, r7}
 686 0158 BB46     		mov	fp, r7
 687 015a B246     		mov	r10, r6
 688 015c A946     		mov	r9, r5
 689 015e A046     		mov	r8, r4
 690 0160 F0BD     		pop	{r4, r5, r6, r7, pc}
 691              	.L27:
 692 0162 C046     		.align	2
 693              	.L26:
ARM GAS  C:\Users\admin\AppData\Local\Temp\ccfrlj1c.s 			page 20


 694 0164 00001040 		.word	1074790400
 695 0168 00000C40 		.word	1074528256
 696 016c 00000440 		.word	1074003968
 697 0170 0000F03F 		.word	1072693248
 698              		.cfi_endproc
 699              	.LFE44:
 701              		.section	.text.Error_Handler,"ax",%progbits
 702              		.align	1
 703              		.global	Error_Handler
 704              		.syntax unified
 705              		.code	16
 706              		.thumb_func
 708              	Error_Handler:
 709              	.LFB45:
 314:Core/Src/main.c **** 
 315:Core/Src/main.c **** void Error_Handler(void)
 316:Core/Src/main.c **** {
 710              		.loc 1 316 1 is_stmt 1 view -0
 711              		.cfi_startproc
 712              		@ Volatile: function does not return.
 713              		@ args = 0, pretend = 0, frame = 0
 714              		@ frame_needed = 0, uses_anonymous_args = 0
 715              		@ link register save eliminated.
 317:Core/Src/main.c ****   /* USER CODE BEGIN Error_Handler_Debug */
 318:Core/Src/main.c ****   /* User can add his own implementation to report the HAL error return state */
 319:Core/Src/main.c ****   __disable_irq();
 716              		.loc 1 319 3 view .LVU162
 717              	.LBB15:
 718              	.LBI15:
 719              		.file 2 "Drivers/CMSIS/Include/cmsis_gcc.h"
   1:Drivers/CMSIS/Include/cmsis_gcc.h **** /**************************************************************************//**
   2:Drivers/CMSIS/Include/cmsis_gcc.h ****  * @file     cmsis_gcc.h
   3:Drivers/CMSIS/Include/cmsis_gcc.h ****  * @brief    CMSIS compiler GCC header file
   4:Drivers/CMSIS/Include/cmsis_gcc.h ****  * @version  V5.0.4
   5:Drivers/CMSIS/Include/cmsis_gcc.h ****  * @date     09. April 2018
   6:Drivers/CMSIS/Include/cmsis_gcc.h ****  ******************************************************************************/
   7:Drivers/CMSIS/Include/cmsis_gcc.h **** /*
   8:Drivers/CMSIS/Include/cmsis_gcc.h ****  * Copyright (c) 2009-2018 Arm Limited. All rights reserved.
   9:Drivers/CMSIS/Include/cmsis_gcc.h ****  *
  10:Drivers/CMSIS/Include/cmsis_gcc.h ****  * SPDX-License-Identifier: Apache-2.0
  11:Drivers/CMSIS/Include/cmsis_gcc.h ****  *
  12:Drivers/CMSIS/Include/cmsis_gcc.h ****  * Licensed under the Apache License, Version 2.0 (the License); you may
  13:Drivers/CMSIS/Include/cmsis_gcc.h ****  * not use this file except in compliance with the License.
  14:Drivers/CMSIS/Include/cmsis_gcc.h ****  * You may obtain a copy of the License at
  15:Drivers/CMSIS/Include/cmsis_gcc.h ****  *
  16:Drivers/CMSIS/Include/cmsis_gcc.h ****  * www.apache.org/licenses/LICENSE-2.0
  17:Drivers/CMSIS/Include/cmsis_gcc.h ****  *
  18:Drivers/CMSIS/Include/cmsis_gcc.h ****  * Unless required by applicable law or agreed to in writing, software
  19:Drivers/CMSIS/Include/cmsis_gcc.h ****  * distributed under the License is distributed on an AS IS BASIS, WITHOUT
  20:Drivers/CMSIS/Include/cmsis_gcc.h ****  * WARRANTIES OR CONDITIONS OF ANY KIND, either express or implied.
  21:Drivers/CMSIS/Include/cmsis_gcc.h ****  * See the License for the specific language governing permissions and
  22:Drivers/CMSIS/Include/cmsis_gcc.h ****  * limitations under the License.
  23:Drivers/CMSIS/Include/cmsis_gcc.h ****  */
  24:Drivers/CMSIS/Include/cmsis_gcc.h **** 
  25:Drivers/CMSIS/Include/cmsis_gcc.h **** #ifndef __CMSIS_GCC_H
  26:Drivers/CMSIS/Include/cmsis_gcc.h **** #define __CMSIS_GCC_H
  27:Drivers/CMSIS/Include/cmsis_gcc.h **** 
ARM GAS  C:\Users\admin\AppData\Local\Temp\ccfrlj1c.s 			page 21


  28:Drivers/CMSIS/Include/cmsis_gcc.h **** /* ignore some GCC warnings */
  29:Drivers/CMSIS/Include/cmsis_gcc.h **** #pragma GCC diagnostic push
  30:Drivers/CMSIS/Include/cmsis_gcc.h **** #pragma GCC diagnostic ignored "-Wsign-conversion"
  31:Drivers/CMSIS/Include/cmsis_gcc.h **** #pragma GCC diagnostic ignored "-Wconversion"
  32:Drivers/CMSIS/Include/cmsis_gcc.h **** #pragma GCC diagnostic ignored "-Wunused-parameter"
  33:Drivers/CMSIS/Include/cmsis_gcc.h **** 
  34:Drivers/CMSIS/Include/cmsis_gcc.h **** /* Fallback for __has_builtin */
  35:Drivers/CMSIS/Include/cmsis_gcc.h **** #ifndef __has_builtin
  36:Drivers/CMSIS/Include/cmsis_gcc.h ****   #define __has_builtin(x) (0)
  37:Drivers/CMSIS/Include/cmsis_gcc.h **** #endif
  38:Drivers/CMSIS/Include/cmsis_gcc.h **** 
  39:Drivers/CMSIS/Include/cmsis_gcc.h **** /* CMSIS compiler specific defines */
  40:Drivers/CMSIS/Include/cmsis_gcc.h **** #ifndef   __ASM
  41:Drivers/CMSIS/Include/cmsis_gcc.h ****   #define __ASM                                  __asm
  42:Drivers/CMSIS/Include/cmsis_gcc.h **** #endif
  43:Drivers/CMSIS/Include/cmsis_gcc.h **** #ifndef   __INLINE
  44:Drivers/CMSIS/Include/cmsis_gcc.h ****   #define __INLINE                               inline
  45:Drivers/CMSIS/Include/cmsis_gcc.h **** #endif
  46:Drivers/CMSIS/Include/cmsis_gcc.h **** #ifndef   __STATIC_INLINE
  47:Drivers/CMSIS/Include/cmsis_gcc.h ****   #define __STATIC_INLINE                        static inline
  48:Drivers/CMSIS/Include/cmsis_gcc.h **** #endif
  49:Drivers/CMSIS/Include/cmsis_gcc.h **** #ifndef   __STATIC_FORCEINLINE                 
  50:Drivers/CMSIS/Include/cmsis_gcc.h ****   #define __STATIC_FORCEINLINE                   __attribute__((always_inline)) static inline
  51:Drivers/CMSIS/Include/cmsis_gcc.h **** #endif                                           
  52:Drivers/CMSIS/Include/cmsis_gcc.h **** #ifndef   __NO_RETURN
  53:Drivers/CMSIS/Include/cmsis_gcc.h ****   #define __NO_RETURN                            __attribute__((__noreturn__))
  54:Drivers/CMSIS/Include/cmsis_gcc.h **** #endif
  55:Drivers/CMSIS/Include/cmsis_gcc.h **** #ifndef   __USED
  56:Drivers/CMSIS/Include/cmsis_gcc.h ****   #define __USED                                 __attribute__((used))
  57:Drivers/CMSIS/Include/cmsis_gcc.h **** #endif
  58:Drivers/CMSIS/Include/cmsis_gcc.h **** #ifndef   __WEAK
  59:Drivers/CMSIS/Include/cmsis_gcc.h ****   #define __WEAK                                 __attribute__((weak))
  60:Drivers/CMSIS/Include/cmsis_gcc.h **** #endif
  61:Drivers/CMSIS/Include/cmsis_gcc.h **** #ifndef   __PACKED
  62:Drivers/CMSIS/Include/cmsis_gcc.h ****   #define __PACKED                               __attribute__((packed, aligned(1)))
  63:Drivers/CMSIS/Include/cmsis_gcc.h **** #endif
  64:Drivers/CMSIS/Include/cmsis_gcc.h **** #ifndef   __PACKED_STRUCT
  65:Drivers/CMSIS/Include/cmsis_gcc.h ****   #define __PACKED_STRUCT                        struct __attribute__((packed, aligned(1)))
  66:Drivers/CMSIS/Include/cmsis_gcc.h **** #endif
  67:Drivers/CMSIS/Include/cmsis_gcc.h **** #ifndef   __PACKED_UNION
  68:Drivers/CMSIS/Include/cmsis_gcc.h ****   #define __PACKED_UNION                         union __attribute__((packed, aligned(1)))
  69:Drivers/CMSIS/Include/cmsis_gcc.h **** #endif
  70:Drivers/CMSIS/Include/cmsis_gcc.h **** #ifndef   __UNALIGNED_UINT32        /* deprecated */
  71:Drivers/CMSIS/Include/cmsis_gcc.h ****   #pragma GCC diagnostic push
  72:Drivers/CMSIS/Include/cmsis_gcc.h ****   #pragma GCC diagnostic ignored "-Wpacked"
  73:Drivers/CMSIS/Include/cmsis_gcc.h ****   #pragma GCC diagnostic ignored "-Wattributes"
  74:Drivers/CMSIS/Include/cmsis_gcc.h ****   struct __attribute__((packed)) T_UINT32 { uint32_t v; };
  75:Drivers/CMSIS/Include/cmsis_gcc.h ****   #pragma GCC diagnostic pop
  76:Drivers/CMSIS/Include/cmsis_gcc.h ****   #define __UNALIGNED_UINT32(x)                  (((struct T_UINT32 *)(x))->v)
  77:Drivers/CMSIS/Include/cmsis_gcc.h **** #endif
  78:Drivers/CMSIS/Include/cmsis_gcc.h **** #ifndef   __UNALIGNED_UINT16_WRITE
  79:Drivers/CMSIS/Include/cmsis_gcc.h ****   #pragma GCC diagnostic push
  80:Drivers/CMSIS/Include/cmsis_gcc.h ****   #pragma GCC diagnostic ignored "-Wpacked"
  81:Drivers/CMSIS/Include/cmsis_gcc.h ****   #pragma GCC diagnostic ignored "-Wattributes"
  82:Drivers/CMSIS/Include/cmsis_gcc.h ****   __PACKED_STRUCT T_UINT16_WRITE { uint16_t v; };
  83:Drivers/CMSIS/Include/cmsis_gcc.h ****   #pragma GCC diagnostic pop
  84:Drivers/CMSIS/Include/cmsis_gcc.h ****   #define __UNALIGNED_UINT16_WRITE(addr, val)    (void)((((struct T_UINT16_WRITE *)(void *)(addr))-
ARM GAS  C:\Users\admin\AppData\Local\Temp\ccfrlj1c.s 			page 22


  85:Drivers/CMSIS/Include/cmsis_gcc.h **** #endif
  86:Drivers/CMSIS/Include/cmsis_gcc.h **** #ifndef   __UNALIGNED_UINT16_READ
  87:Drivers/CMSIS/Include/cmsis_gcc.h ****   #pragma GCC diagnostic push
  88:Drivers/CMSIS/Include/cmsis_gcc.h ****   #pragma GCC diagnostic ignored "-Wpacked"
  89:Drivers/CMSIS/Include/cmsis_gcc.h ****   #pragma GCC diagnostic ignored "-Wattributes"
  90:Drivers/CMSIS/Include/cmsis_gcc.h ****   __PACKED_STRUCT T_UINT16_READ { uint16_t v; };
  91:Drivers/CMSIS/Include/cmsis_gcc.h ****   #pragma GCC diagnostic pop
  92:Drivers/CMSIS/Include/cmsis_gcc.h ****   #define __UNALIGNED_UINT16_READ(addr)          (((const struct T_UINT16_READ *)(const void *)(add
  93:Drivers/CMSIS/Include/cmsis_gcc.h **** #endif
  94:Drivers/CMSIS/Include/cmsis_gcc.h **** #ifndef   __UNALIGNED_UINT32_WRITE
  95:Drivers/CMSIS/Include/cmsis_gcc.h ****   #pragma GCC diagnostic push
  96:Drivers/CMSIS/Include/cmsis_gcc.h ****   #pragma GCC diagnostic ignored "-Wpacked"
  97:Drivers/CMSIS/Include/cmsis_gcc.h ****   #pragma GCC diagnostic ignored "-Wattributes"
  98:Drivers/CMSIS/Include/cmsis_gcc.h ****   __PACKED_STRUCT T_UINT32_WRITE { uint32_t v; };
  99:Drivers/CMSIS/Include/cmsis_gcc.h ****   #pragma GCC diagnostic pop
 100:Drivers/CMSIS/Include/cmsis_gcc.h ****   #define __UNALIGNED_UINT32_WRITE(addr, val)    (void)((((struct T_UINT32_WRITE *)(void *)(addr))-
 101:Drivers/CMSIS/Include/cmsis_gcc.h **** #endif
 102:Drivers/CMSIS/Include/cmsis_gcc.h **** #ifndef   __UNALIGNED_UINT32_READ
 103:Drivers/CMSIS/Include/cmsis_gcc.h ****   #pragma GCC diagnostic push
 104:Drivers/CMSIS/Include/cmsis_gcc.h ****   #pragma GCC diagnostic ignored "-Wpacked"
 105:Drivers/CMSIS/Include/cmsis_gcc.h ****   #pragma GCC diagnostic ignored "-Wattributes"
 106:Drivers/CMSIS/Include/cmsis_gcc.h ****   __PACKED_STRUCT T_UINT32_READ { uint32_t v; };
 107:Drivers/CMSIS/Include/cmsis_gcc.h ****   #pragma GCC diagnostic pop
 108:Drivers/CMSIS/Include/cmsis_gcc.h ****   #define __UNALIGNED_UINT32_READ(addr)          (((const struct T_UINT32_READ *)(const void *)(add
 109:Drivers/CMSIS/Include/cmsis_gcc.h **** #endif
 110:Drivers/CMSIS/Include/cmsis_gcc.h **** #ifndef   __ALIGNED
 111:Drivers/CMSIS/Include/cmsis_gcc.h ****   #define __ALIGNED(x)                           __attribute__((aligned(x)))
 112:Drivers/CMSIS/Include/cmsis_gcc.h **** #endif
 113:Drivers/CMSIS/Include/cmsis_gcc.h **** #ifndef   __RESTRICT
 114:Drivers/CMSIS/Include/cmsis_gcc.h ****   #define __RESTRICT                             __restrict
 115:Drivers/CMSIS/Include/cmsis_gcc.h **** #endif
 116:Drivers/CMSIS/Include/cmsis_gcc.h **** 
 117:Drivers/CMSIS/Include/cmsis_gcc.h **** 
 118:Drivers/CMSIS/Include/cmsis_gcc.h **** /* ###########################  Core Function Access  ########################### */
 119:Drivers/CMSIS/Include/cmsis_gcc.h **** /** \ingroup  CMSIS_Core_FunctionInterface
 120:Drivers/CMSIS/Include/cmsis_gcc.h ****     \defgroup CMSIS_Core_RegAccFunctions CMSIS Core Register Access Functions
 121:Drivers/CMSIS/Include/cmsis_gcc.h ****   @{
 122:Drivers/CMSIS/Include/cmsis_gcc.h ****  */
 123:Drivers/CMSIS/Include/cmsis_gcc.h **** 
 124:Drivers/CMSIS/Include/cmsis_gcc.h **** /**
 125:Drivers/CMSIS/Include/cmsis_gcc.h ****   \brief   Enable IRQ Interrupts
 126:Drivers/CMSIS/Include/cmsis_gcc.h ****   \details Enables IRQ interrupts by clearing the I-bit in the CPSR.
 127:Drivers/CMSIS/Include/cmsis_gcc.h ****            Can only be executed in Privileged modes.
 128:Drivers/CMSIS/Include/cmsis_gcc.h ****  */
 129:Drivers/CMSIS/Include/cmsis_gcc.h **** __STATIC_FORCEINLINE void __enable_irq(void)
 130:Drivers/CMSIS/Include/cmsis_gcc.h **** {
 131:Drivers/CMSIS/Include/cmsis_gcc.h ****   __ASM volatile ("cpsie i" : : : "memory");
 132:Drivers/CMSIS/Include/cmsis_gcc.h **** }
 133:Drivers/CMSIS/Include/cmsis_gcc.h **** 
 134:Drivers/CMSIS/Include/cmsis_gcc.h **** 
 135:Drivers/CMSIS/Include/cmsis_gcc.h **** /**
 136:Drivers/CMSIS/Include/cmsis_gcc.h ****   \brief   Disable IRQ Interrupts
 137:Drivers/CMSIS/Include/cmsis_gcc.h ****   \details Disables IRQ interrupts by setting the I-bit in the CPSR.
 138:Drivers/CMSIS/Include/cmsis_gcc.h ****            Can only be executed in Privileged modes.
 139:Drivers/CMSIS/Include/cmsis_gcc.h ****  */
 140:Drivers/CMSIS/Include/cmsis_gcc.h **** __STATIC_FORCEINLINE void __disable_irq(void)
 720              		.loc 2 140 27 view .LVU163
ARM GAS  C:\Users\admin\AppData\Local\Temp\ccfrlj1c.s 			page 23


 721              	.LBB16:
 141:Drivers/CMSIS/Include/cmsis_gcc.h **** {
 142:Drivers/CMSIS/Include/cmsis_gcc.h ****   __ASM volatile ("cpsid i" : : : "memory");
 722              		.loc 2 142 3 view .LVU164
 723              		.syntax divided
 724              	@ 142 "Drivers/CMSIS/Include/cmsis_gcc.h" 1
 725 0000 72B6     		cpsid i
 726              	@ 0 "" 2
 727              		.thumb
 728              		.syntax unified
 729              	.L29:
 730              	.LBE16:
 731              	.LBE15:
 320:Core/Src/main.c ****   while (1)
 732              		.loc 1 320 3 view .LVU165
 321:Core/Src/main.c ****   {
 322:Core/Src/main.c ****   }
 733              		.loc 1 322 3 view .LVU166
 320:Core/Src/main.c ****   while (1)
 734              		.loc 1 320 9 view .LVU167
 735 0002 FEE7     		b	.L29
 736              		.cfi_endproc
 737              	.LFE45:
 739              		.section	.text.SystemClock_Config,"ax",%progbits
 740              		.align	1
 741              		.global	SystemClock_Config
 742              		.syntax unified
 743              		.code	16
 744              		.thumb_func
 746              	SystemClock_Config:
 747              	.LFB41:
 168:Core/Src/main.c ****   RCC_OscInitTypeDef RCC_OscInitStruct = {0};
 748              		.loc 1 168 1 view -0
 749              		.cfi_startproc
 750              		@ args = 0, pretend = 0, frame = 64
 751              		@ frame_needed = 0, uses_anonymous_args = 0
 752 0000 00B5     		push	{lr}
 753              	.LCFI8:
 754              		.cfi_def_cfa_offset 4
 755              		.cfi_offset 14, -4
 756 0002 91B0     		sub	sp, sp, #68
 757              	.LCFI9:
 758              		.cfi_def_cfa_offset 72
 169:Core/Src/main.c ****   RCC_ClkInitTypeDef RCC_ClkInitStruct = {0};
 759              		.loc 1 169 3 view .LVU169
 169:Core/Src/main.c ****   RCC_ClkInitTypeDef RCC_ClkInitStruct = {0};
 760              		.loc 1 169 22 is_stmt 0 view .LVU170
 761 0004 3022     		movs	r2, #48
 762 0006 0021     		movs	r1, #0
 763 0008 04A8     		add	r0, sp, #16
 764 000a FFF7FEFF 		bl	memset
 765              	.LVL74:
 170:Core/Src/main.c **** 
 766              		.loc 1 170 3 is_stmt 1 view .LVU171
 170:Core/Src/main.c **** 
 767              		.loc 1 170 22 is_stmt 0 view .LVU172
 768 000e 1022     		movs	r2, #16
ARM GAS  C:\Users\admin\AppData\Local\Temp\ccfrlj1c.s 			page 24


 769 0010 0021     		movs	r1, #0
 770 0012 6846     		mov	r0, sp
 771 0014 FFF7FEFF 		bl	memset
 772              	.LVL75:
 175:Core/Src/main.c ****   RCC_OscInitStruct.HSIState = RCC_HSI_ON;
 773              		.loc 1 175 3 is_stmt 1 view .LVU173
 175:Core/Src/main.c ****   RCC_OscInitStruct.HSIState = RCC_HSI_ON;
 774              		.loc 1 175 36 is_stmt 0 view .LVU174
 775 0018 0223     		movs	r3, #2
 776 001a 0493     		str	r3, [sp, #16]
 176:Core/Src/main.c ****   RCC_OscInitStruct.HSICalibrationValue = RCC_HSICALIBRATION_DEFAULT;
 777              		.loc 1 176 3 is_stmt 1 view .LVU175
 176:Core/Src/main.c ****   RCC_OscInitStruct.HSICalibrationValue = RCC_HSICALIBRATION_DEFAULT;
 778              		.loc 1 176 30 is_stmt 0 view .LVU176
 779 001c 0122     		movs	r2, #1
 780 001e 0792     		str	r2, [sp, #28]
 177:Core/Src/main.c ****   RCC_OscInitStruct.PLL.PLLState = RCC_PLL_ON;
 781              		.loc 1 177 3 is_stmt 1 view .LVU177
 177:Core/Src/main.c ****   RCC_OscInitStruct.PLL.PLLState = RCC_PLL_ON;
 782              		.loc 1 177 41 is_stmt 0 view .LVU178
 783 0020 0F32     		adds	r2, r2, #15
 784 0022 0892     		str	r2, [sp, #32]
 178:Core/Src/main.c ****   RCC_OscInitStruct.PLL.PLLSource = RCC_PLLSOURCE_HSI;
 785              		.loc 1 178 3 is_stmt 1 view .LVU179
 178:Core/Src/main.c ****   RCC_OscInitStruct.PLL.PLLSource = RCC_PLLSOURCE_HSI;
 786              		.loc 1 178 34 is_stmt 0 view .LVU180
 787 0024 0C93     		str	r3, [sp, #48]
 179:Core/Src/main.c ****   RCC_OscInitStruct.PLL.PLLMUL = RCC_PLL_MUL12;
 788              		.loc 1 179 3 is_stmt 1 view .LVU181
 180:Core/Src/main.c ****   RCC_OscInitStruct.PLL.PREDIV = RCC_PREDIV_DIV1;
 789              		.loc 1 180 3 view .LVU182
 180:Core/Src/main.c ****   RCC_OscInitStruct.PLL.PREDIV = RCC_PREDIV_DIV1;
 790              		.loc 1 180 32 is_stmt 0 view .LVU183
 791 0026 A023     		movs	r3, #160
 792 0028 9B03     		lsls	r3, r3, #14
 793 002a 0E93     		str	r3, [sp, #56]
 181:Core/Src/main.c ****   if (HAL_RCC_OscConfig(&RCC_OscInitStruct) != HAL_OK)
 794              		.loc 1 181 3 is_stmt 1 view .LVU184
 182:Core/Src/main.c ****   {
 795              		.loc 1 182 3 view .LVU185
 182:Core/Src/main.c ****   {
 796              		.loc 1 182 7 is_stmt 0 view .LVU186
 797 002c 04A8     		add	r0, sp, #16
 798 002e FFF7FEFF 		bl	HAL_RCC_OscConfig
 799              	.LVL76:
 182:Core/Src/main.c ****   {
 800              		.loc 1 182 6 discriminator 1 view .LVU187
 801 0032 0028     		cmp	r0, #0
 802 0034 0ED1     		bne	.L33
 189:Core/Src/main.c ****                               |RCC_CLOCKTYPE_PCLK1;
 803              		.loc 1 189 3 is_stmt 1 view .LVU188
 189:Core/Src/main.c ****                               |RCC_CLOCKTYPE_PCLK1;
 804              		.loc 1 189 31 is_stmt 0 view .LVU189
 805 0036 0723     		movs	r3, #7
 806 0038 0093     		str	r3, [sp]
 191:Core/Src/main.c ****   RCC_ClkInitStruct.AHBCLKDivider = RCC_SYSCLK_DIV1;
 807              		.loc 1 191 3 is_stmt 1 view .LVU190
ARM GAS  C:\Users\admin\AppData\Local\Temp\ccfrlj1c.s 			page 25


 191:Core/Src/main.c ****   RCC_ClkInitStruct.AHBCLKDivider = RCC_SYSCLK_DIV1;
 808              		.loc 1 191 34 is_stmt 0 view .LVU191
 809 003a 053B     		subs	r3, r3, #5
 810 003c 0193     		str	r3, [sp, #4]
 192:Core/Src/main.c ****   RCC_ClkInitStruct.APB1CLKDivider = RCC_HCLK_DIV1;
 811              		.loc 1 192 3 is_stmt 1 view .LVU192
 192:Core/Src/main.c ****   RCC_ClkInitStruct.APB1CLKDivider = RCC_HCLK_DIV1;
 812              		.loc 1 192 35 is_stmt 0 view .LVU193
 813 003e 0023     		movs	r3, #0
 814 0040 0293     		str	r3, [sp, #8]
 193:Core/Src/main.c **** 
 815              		.loc 1 193 3 is_stmt 1 view .LVU194
 193:Core/Src/main.c **** 
 816              		.loc 1 193 36 is_stmt 0 view .LVU195
 817 0042 0393     		str	r3, [sp, #12]
 195:Core/Src/main.c ****   {
 818              		.loc 1 195 3 is_stmt 1 view .LVU196
 195:Core/Src/main.c ****   {
 819              		.loc 1 195 7 is_stmt 0 view .LVU197
 820 0044 0121     		movs	r1, #1
 821 0046 6846     		mov	r0, sp
 822 0048 FFF7FEFF 		bl	HAL_RCC_ClockConfig
 823              	.LVL77:
 195:Core/Src/main.c ****   {
 824              		.loc 1 195 6 discriminator 1 view .LVU198
 825 004c 0028     		cmp	r0, #0
 826 004e 03D1     		bne	.L34
 199:Core/Src/main.c **** 
 827              		.loc 1 199 1 view .LVU199
 828 0050 11B0     		add	sp, sp, #68
 829              		@ sp needed
 830 0052 00BD     		pop	{pc}
 831              	.L33:
 184:Core/Src/main.c ****   }
 832              		.loc 1 184 5 is_stmt 1 view .LVU200
 833 0054 FFF7FEFF 		bl	Error_Handler
 834              	.LVL78:
 835              	.L34:
 197:Core/Src/main.c ****   }
 836              		.loc 1 197 5 view .LVU201
 837 0058 FFF7FEFF 		bl	Error_Handler
 838              	.LVL79:
 839              		.cfi_endproc
 840              	.LFE41:
 842              		.global	__aeabi_lmul
 843              		.global	__aeabi_ui2d
 844              		.global	__aeabi_ul2d
 845              		.section	.text.main,"ax",%progbits
 846              		.align	1
 847              		.global	main
 848              		.syntax unified
 849              		.code	16
 850              		.thumb_func
 852              	main:
 853              	.LFB40:
  87:Core/Src/main.c **** 
 854              		.loc 1 87 1 view -0
ARM GAS  C:\Users\admin\AppData\Local\Temp\ccfrlj1c.s 			page 26


 855              		.cfi_startproc
 856              		@ args = 0, pretend = 0, frame = 0
 857              		@ frame_needed = 0, uses_anonymous_args = 0
 858 0000 F8B5     		push	{r3, r4, r5, r6, r7, lr}
 859              	.LCFI10:
 860              		.cfi_def_cfa_offset 24
 861              		.cfi_offset 3, -24
 862              		.cfi_offset 4, -20
 863              		.cfi_offset 5, -16
 864              		.cfi_offset 6, -12
 865              		.cfi_offset 7, -8
 866              		.cfi_offset 14, -4
 867 0002 DE46     		mov	lr, fp
 868 0004 5746     		mov	r7, r10
 869 0006 4E46     		mov	r6, r9
 870 0008 4546     		mov	r5, r8
 871 000a E0B5     		push	{r5, r6, r7, lr}
 872              	.LCFI11:
 873              		.cfi_def_cfa_offset 40
 874              		.cfi_offset 8, -40
 875              		.cfi_offset 9, -36
 876              		.cfi_offset 10, -32
 877              		.cfi_offset 11, -28
  96:Core/Src/main.c **** 
 878              		.loc 1 96 3 view .LVU203
 879 000c FFF7FEFF 		bl	HAL_Init
 880              	.LVL80:
 103:Core/Src/main.c **** 
 881              		.loc 1 103 3 view .LVU204
 882 0010 FFF7FEFF 		bl	SystemClock_Config
 883              	.LVL81:
 110:Core/Src/main.c ****   /* USER CODE BEGIN 2 */
 884              		.loc 1 110 3 view .LVU205
 885 0014 FFF7FEFF 		bl	MX_GPIO_Init
 886              	.LVL82:
 887 0018 6CE0     		b	.L38
 888              	.LVL83:
 889              	.L37:
 890              	.LBB17:
 891              	.LBB18:
 123:Core/Src/main.c **** 		  int height = heights[i];
 892              		.loc 1 123 5 view .LVU206
 123:Core/Src/main.c **** 		  int height = heights[i];
 893              		.loc 1 123 9 is_stmt 0 view .LVU207
 894 001a 374B     		ldr	r3, .L39
 895 001c A200     		lsls	r2, r4, #2
 896 001e 9146     		mov	r9, r2
 897 0020 D758     		ldr	r7, [r2, r3]
 898              	.LVL84:
 124:Core/Src/main.c **** 
 899              		.loc 1 124 5 is_stmt 1 view .LVU208
 124:Core/Src/main.c **** 
 900              		.loc 1 124 9 is_stmt 0 view .LVU209
 901 0022 364B     		ldr	r3, .L39+4
 902 0024 D658     		ldr	r6, [r2, r3]
 903              	.LVL85:
 127:Core/Src/main.c **** 
ARM GAS  C:\Users\admin\AppData\Local\Temp\ccfrlj1c.s 			page 27


 904              		.loc 1 127 5 is_stmt 1 view .LVU210
 905 0026 364D     		ldr	r5, .L39+8
 906 0028 0122     		movs	r2, #1
 907 002a 0121     		movs	r1, #1
 908 002c 2800     		movs	r0, r5
 909 002e FFF7FEFF 		bl	HAL_GPIO_WritePin
 910              	.LVL86:
 131:Core/Src/main.c **** 
 911              		.loc 1 131 5 view .LVU211
 131:Core/Src/main.c **** 
 912              		.loc 1 131 18 is_stmt 0 view .LVU212
 913 0032 FFF7FEFF 		bl	HAL_GetTick
 914              	.LVL87:
 131:Core/Src/main.c **** 
 915              		.loc 1 131 16 discriminator 1 view .LVU213
 916 0036 334B     		ldr	r3, .L39+12
 917 0038 9A46     		mov	r10, r3
 918 003a 1860     		str	r0, [r3]
 135:Core/Src/main.c **** 		   checksums[i] = checksum;
 919              		.loc 1 135 6 is_stmt 1 view .LVU214
 135:Core/Src/main.c **** 		   checksums[i] = checksum;
 920              		.loc 1 135 17 is_stmt 0 view .LVU215
 921 003c 6422     		movs	r2, #100
 922 003e 3100     		movs	r1, r6
 923 0040 3800     		movs	r0, r7
 924 0042 FFF7FEFF 		bl	calculate_mandelbrot_fixed_point_arithmetic
 925              	.LVL88:
 926 0046 0200     		movs	r2, r0
 927 0048 0B00     		movs	r3, r1
 928 004a 1000     		movs	r0, r2
 929 004c 1900     		movs	r1, r3
 135:Core/Src/main.c **** 		   checksums[i] = checksum;
 930              		.loc 1 135 15 discriminator 1 view .LVU216
 931 004e 2E4B     		ldr	r3, .L39+16
 932 0050 1860     		str	r0, [r3]
 933 0052 5960     		str	r1, [r3, #4]
 136:Core/Src/main.c **** 		  //TODO: Record the end time
 934              		.loc 1 136 6 is_stmt 1 view .LVU217
 136:Core/Src/main.c **** 		  //TODO: Record the end time
 935              		.loc 1 136 19 is_stmt 0 view .LVU218
 936 0054 2D4B     		ldr	r3, .L39+20
 937 0056 E200     		lsls	r2, r4, #3
 938 0058 9046     		mov	r8, r2
 939 005a 4344     		add	r3, r3, r8
 940 005c 1860     		str	r0, [r3]
 941 005e 5960     		str	r1, [r3, #4]
 139:Core/Src/main.c **** 		  //TODO: Calculate the execution time
 942              		.loc 1 139 5 is_stmt 1 view .LVU219
 139:Core/Src/main.c **** 		  //TODO: Calculate the execution time
 943              		.loc 1 139 16 is_stmt 0 view .LVU220
 944 0060 FFF7FEFF 		bl	HAL_GetTick
 945              	.LVL89:
 139:Core/Src/main.c **** 		  //TODO: Calculate the execution time
 946              		.loc 1 139 14 discriminator 1 view .LVU221
 947 0064 2A4B     		ldr	r3, .L39+24
 948 0066 1860     		str	r0, [r3]
 141:Core/Src/main.c **** 		  execTimes[i] = execution_time;
ARM GAS  C:\Users\admin\AppData\Local\Temp\ccfrlj1c.s 			page 28


 949              		.loc 1 141 5 is_stmt 1 view .LVU222
 141:Core/Src/main.c **** 		  execTimes[i] = execution_time;
 950              		.loc 1 141 31 is_stmt 0 view .LVU223
 951 0068 5346     		mov	r3, r10
 952 006a 1B68     		ldr	r3, [r3]
 953 006c C01A     		subs	r0, r0, r3
 141:Core/Src/main.c **** 		  execTimes[i] = execution_time;
 954              		.loc 1 141 20 view .LVU224
 955 006e 294B     		ldr	r3, .L39+28
 956 0070 9A46     		mov	r10, r3
 957 0072 1860     		str	r0, [r3]
 142:Core/Src/main.c **** 
 958              		.loc 1 142 5 is_stmt 1 view .LVU225
 142:Core/Src/main.c **** 
 959              		.loc 1 142 18 is_stmt 0 view .LVU226
 960 0074 284B     		ldr	r3, .L39+32
 961 0076 4A46     		mov	r2, r9
 962 0078 D050     		str	r0, [r2, r3]
 145:Core/Src/main.c **** 
 963              		.loc 1 145 5 is_stmt 1 view .LVU227
 964 007a 0122     		movs	r2, #1
 965 007c 0221     		movs	r1, #2
 966 007e 2800     		movs	r0, r5
 967 0080 FFF7FEFF 		bl	HAL_GPIO_WritePin
 968              	.LVL90:
 147:Core/Src/main.c **** 		  executionSec = (double)execution_time / 1000.0;
 969              		.loc 1 147 5 view .LVU228
 147:Core/Src/main.c **** 		  executionSec = (double)execution_time / 1000.0;
 970              		.loc 1 147 19 is_stmt 0 view .LVU229
 971 0084 FB17     		asrs	r3, r7, #31
 147:Core/Src/main.c **** 		  executionSec = (double)execution_time / 1000.0;
 972              		.loc 1 147 35 view .LVU230
 973 0086 F117     		asrs	r1, r6, #31
 974 0088 3A00     		movs	r2, r7
 975 008a 3000     		movs	r0, r6
 976 008c FFF7FEFF 		bl	__aeabi_lmul
 977              	.LVL91:
 978 0090 8346     		mov	fp, r0
 979 0092 8946     		mov	r9, r1
 147:Core/Src/main.c **** 		  executionSec = (double)execution_time / 1000.0;
 980              		.loc 1 147 17 view .LVU231
 981 0094 214B     		ldr	r3, .L39+36
 982 0096 1860     		str	r0, [r3]
 983 0098 5960     		str	r1, [r3, #4]
 148:Core/Src/main.c **** 		  throughput = (double)totalPixels/executionSec;
 984              		.loc 1 148 5 is_stmt 1 view .LVU232
 148:Core/Src/main.c **** 		  throughput = (double)totalPixels/executionSec;
 985              		.loc 1 148 20 is_stmt 0 view .LVU233
 986 009a 5346     		mov	r3, r10
 987 009c 1868     		ldr	r0, [r3]
 988 009e FFF7FEFF 		bl	__aeabi_ui2d
 989              	.LVL92:
 148:Core/Src/main.c **** 		  throughput = (double)totalPixels/executionSec;
 990              		.loc 1 148 43 view .LVU234
 991 00a2 0022     		movs	r2, #0
 992 00a4 1E4B     		ldr	r3, .L39+40
 993 00a6 FFF7FEFF 		bl	__aeabi_ddiv
ARM GAS  C:\Users\admin\AppData\Local\Temp\ccfrlj1c.s 			page 29


 994              	.LVL93:
 995 00aa 0600     		movs	r6, r0
 996              	.LVL94:
 148:Core/Src/main.c **** 		  throughput = (double)totalPixels/executionSec;
 997              		.loc 1 148 43 view .LVU235
 998 00ac 0F00     		movs	r7, r1
 999              	.LVL95:
 148:Core/Src/main.c **** 		  throughput = (double)totalPixels/executionSec;
 1000              		.loc 1 148 18 view .LVU236
 1001 00ae 1D4B     		ldr	r3, .L39+44
 1002 00b0 1E60     		str	r6, [r3]
 1003 00b2 5F60     		str	r7, [r3, #4]
 149:Core/Src/main.c **** 		  throughputs[i] = throughput;
 1004              		.loc 1 149 5 is_stmt 1 view .LVU237
 149:Core/Src/main.c **** 		  throughputs[i] = throughput;
 1005              		.loc 1 149 18 is_stmt 0 view .LVU238
 1006 00b4 5846     		mov	r0, fp
 1007 00b6 4946     		mov	r1, r9
 1008 00b8 FFF7FEFF 		bl	__aeabi_ul2d
 1009              	.LVL96:
 149:Core/Src/main.c **** 		  throughputs[i] = throughput;
 1010              		.loc 1 149 37 view .LVU239
 1011 00bc 3200     		movs	r2, r6
 1012 00be 3B00     		movs	r3, r7
 1013 00c0 FFF7FEFF 		bl	__aeabi_ddiv
 1014              	.LVL97:
 149:Core/Src/main.c **** 		  throughputs[i] = throughput;
 1015              		.loc 1 149 16 view .LVU240
 1016 00c4 184B     		ldr	r3, .L39+48
 1017 00c6 1860     		str	r0, [r3]
 1018 00c8 5960     		str	r1, [r3, #4]
 150:Core/Src/main.c **** 		  //TODO: Hold the LEDs on for a 1s delay
 1019              		.loc 1 150 5 is_stmt 1 view .LVU241
 150:Core/Src/main.c **** 		  //TODO: Hold the LEDs on for a 1s delay
 1020              		.loc 1 150 20 is_stmt 0 view .LVU242
 1021 00ca 184B     		ldr	r3, .L39+52
 1022 00cc 4344     		add	r3, r3, r8
 1023 00ce 1860     		str	r0, [r3]
 1024 00d0 5960     		str	r1, [r3, #4]
 152:Core/Src/main.c **** 
 1025              		.loc 1 152 5 is_stmt 1 view .LVU243
 1026 00d2 FA20     		movs	r0, #250
 1027 00d4 C000     		lsls	r0, r0, #3
 1028 00d6 FFF7FEFF 		bl	HAL_Delay
 1029              	.LVL98:
 155:Core/Src/main.c **** 		  HAL_GPIO_WritePin(GPIOB, GPIO_PIN_1, GPIO_PIN_RESET);
 1030              		.loc 1 155 5 view .LVU244
 1031 00da 0022     		movs	r2, #0
 1032 00dc 0121     		movs	r1, #1
 1033 00de 2800     		movs	r0, r5
 1034 00e0 FFF7FEFF 		bl	HAL_GPIO_WritePin
 1035              	.LVL99:
 156:Core/Src/main.c **** 	  }
 1036              		.loc 1 156 5 view .LVU245
 1037 00e4 0022     		movs	r2, #0
 1038 00e6 0221     		movs	r1, #2
 1039 00e8 2800     		movs	r0, r5
ARM GAS  C:\Users\admin\AppData\Local\Temp\ccfrlj1c.s 			page 30


 1040 00ea FFF7FEFF 		bl	HAL_GPIO_WritePin
 1041              	.LVL100:
 1042              	.LBE18:
 122:Core/Src/main.c **** 		  int width = widths[i];
 1043              		.loc 1 122 28 discriminator 3 view .LVU246
 1044 00ee 0134     		adds	r4, r4, #1
 1045              	.LVL101:
 1046              	.L36:
 122:Core/Src/main.c **** 		  int width = widths[i];
 1047              		.loc 1 122 22 discriminator 1 view .LVU247
 1048 00f0 042C     		cmp	r4, #4
 1049 00f2 92DD     		ble	.L37
 1050              	.LVL102:
 1051              	.L38:
 122:Core/Src/main.c **** 		  int width = widths[i];
 1052              		.loc 1 122 22 is_stmt 0 discriminator 1 view .LVU248
 1053              	.LBE17:
 116:Core/Src/main.c ****   {
 1054              		.loc 1 116 3 is_stmt 1 view .LVU249
 122:Core/Src/main.c **** 		  int width = widths[i];
 1055              		.loc 1 122 4 view .LVU250
 1056              	.LBB19:
 122:Core/Src/main.c **** 		  int width = widths[i];
 1057              		.loc 1 122 9 view .LVU251
 122:Core/Src/main.c **** 		  int width = widths[i];
 1058              		.loc 1 122 13 is_stmt 0 view .LVU252
 1059 00f4 0024     		movs	r4, #0
 122:Core/Src/main.c **** 		  int width = widths[i];
 1060              		.loc 1 122 4 view .LVU253
 1061 00f6 FBE7     		b	.L36
 1062              	.L40:
 1063              		.align	2
 1064              	.L39:
 1065 00f8 00000000 		.word	widths
 1066 00fc 00000000 		.word	heights
 1067 0100 00040048 		.word	1207960576
 1068 0104 00000000 		.word	start_time
 1069 0108 00000000 		.word	checksum
 1070 010c 00000000 		.word	checksums
 1071 0110 00000000 		.word	end_time
 1072 0114 00000000 		.word	execution_time
 1073 0118 00000000 		.word	execTimes
 1074 011c 00000000 		.word	totalPixels
 1075 0120 00408F40 		.word	1083129856
 1076 0124 00000000 		.word	executionSec
 1077 0128 00000000 		.word	throughput
 1078 012c 00000000 		.word	throughputs
 1079              	.LBE19:
 1080              		.cfi_endproc
 1081              	.LFE40:
 1083              		.global	throughputs
 1084              		.section	.bss.throughputs,"aw",%nobits
 1085              		.align	3
 1088              	throughputs:
 1089 0000 00000000 		.space	40
 1089      00000000 
 1089      00000000 
ARM GAS  C:\Users\admin\AppData\Local\Temp\ccfrlj1c.s 			page 31


 1089      00000000 
 1089      00000000 
 1090              		.global	checksums
 1091              		.section	.bss.checksums,"aw",%nobits
 1092              		.align	3
 1095              	checksums:
 1096 0000 00000000 		.space	40
 1096      00000000 
 1096      00000000 
 1096      00000000 
 1096      00000000 
 1097              		.global	execTimes
 1098              		.section	.bss.execTimes,"aw",%nobits
 1099              		.align	2
 1102              	execTimes:
 1103 0000 00000000 		.space	20
 1103      00000000 
 1103      00000000 
 1103      00000000 
 1103      00000000 
 1104              		.global	heights
 1105              		.section	.data.heights,"aw"
 1106              		.align	2
 1109              	heights:
 1110 0000 80000000 		.word	128
 1111 0004 A0000000 		.word	160
 1112 0008 C0000000 		.word	192
 1113 000c E0000000 		.word	224
 1114 0010 09010000 		.word	265
 1115              		.global	widths
 1116              		.section	.data.widths,"aw"
 1117              		.align	2
 1120              	widths:
 1121 0000 80000000 		.word	128
 1122 0004 A0000000 		.word	160
 1123 0008 C0000000 		.word	192
 1124 000c E0000000 		.word	224
 1125 0010 09010000 		.word	265
 1126              		.global	height
 1127              		.section	.bss.height,"aw",%nobits
 1128              		.align	2
 1131              	height:
 1132 0000 00000000 		.space	4
 1133              		.global	width
 1134              		.section	.bss.width,"aw",%nobits
 1135              		.align	2
 1138              	width:
 1139 0000 00000000 		.space	4
 1140              		.global	throughput
 1141              		.section	.bss.throughput,"aw",%nobits
 1142              		.align	3
 1145              	throughput:
 1146 0000 00000000 		.space	8
 1146      00000000 
 1147              		.global	executionSec
 1148              		.section	.bss.executionSec,"aw",%nobits
 1149              		.align	3
ARM GAS  C:\Users\admin\AppData\Local\Temp\ccfrlj1c.s 			page 32


 1152              	executionSec:
 1153 0000 00000000 		.space	8
 1153      00000000 
 1154              		.global	totalPixels
 1155              		.section	.bss.totalPixels,"aw",%nobits
 1156              		.align	3
 1159              	totalPixels:
 1160 0000 00000000 		.space	8
 1160      00000000 
 1161              		.global	cpuCycles
 1162              		.section	.bss.cpuCycles,"aw",%nobits
 1163              		.align	2
 1166              	cpuCycles:
 1167 0000 00000000 		.space	4
 1168              		.global	checksum
 1169              		.section	.bss.checksum,"aw",%nobits
 1170              		.align	3
 1173              	checksum:
 1174 0000 00000000 		.space	8
 1174      00000000 
 1175              		.global	execution_time
 1176              		.section	.bss.execution_time,"aw",%nobits
 1177              		.align	2
 1180              	execution_time:
 1181 0000 00000000 		.space	4
 1182              		.global	end_time
 1183              		.section	.bss.end_time,"aw",%nobits
 1184              		.align	2
 1187              	end_time:
 1188 0000 00000000 		.space	4
 1189              		.global	start_time
 1190              		.section	.bss.start_time,"aw",%nobits
 1191              		.align	2
 1194              	start_time:
 1195 0000 00000000 		.space	4
 1196              		.text
 1197              	.Letext0:
 1198              		.file 3 "C:\\ST\\STM32CubeIDE_1.19.0\\STM32CubeIDE\\plugins\\com.st.stm32cube.ide.mcu.externaltool
 1199              		.file 4 "C:\\ST\\STM32CubeIDE_1.19.0\\STM32CubeIDE\\plugins\\com.st.stm32cube.ide.mcu.externaltool
 1200              		.file 5 "Drivers/CMSIS/Device/ST/STM32F0xx/Include/stm32f051x8.h"
 1201              		.file 6 "Drivers/STM32F0xx_HAL_Driver/Inc/stm32f0xx_hal_def.h"
 1202              		.file 7 "Drivers/STM32F0xx_HAL_Driver/Inc/stm32f0xx_hal_rcc.h"
 1203              		.file 8 "Drivers/STM32F0xx_HAL_Driver/Inc/stm32f0xx_hal_gpio.h"
 1204              		.file 9 "Drivers/STM32F0xx_HAL_Driver/Inc/stm32f0xx_hal.h"
 1205              		.file 10 "<built-in>"
ARM GAS  C:\Users\admin\AppData\Local\Temp\ccfrlj1c.s 			page 33


DEFINED SYMBOLS
                            *ABS*:00000000 main.c
C:\Users\admin\AppData\Local\Temp\ccfrlj1c.s:19     .text.MX_GPIO_Init:00000000 $t
C:\Users\admin\AppData\Local\Temp\ccfrlj1c.s:24     .text.MX_GPIO_Init:00000000 MX_GPIO_Init
C:\Users\admin\AppData\Local\Temp\ccfrlj1c.s:131    .text.MX_GPIO_Init:0000006c $d
C:\Users\admin\AppData\Local\Temp\ccfrlj1c.s:143    .text.calculate_mandelbrot_fixed_point_arithmetic:00000000 $t
C:\Users\admin\AppData\Local\Temp\ccfrlj1c.s:149    .text.calculate_mandelbrot_fixed_point_arithmetic:00000000 calculate_mandelbrot_fixed_point_arithmetic
C:\Users\admin\AppData\Local\Temp\ccfrlj1c.s:379    .text.calculate_mandelbrot_fixed_point_arithmetic:000000cc $d
C:\Users\admin\AppData\Local\Temp\ccfrlj1c.s:388    .text.calculate_mandelbrot_double:00000000 $t
C:\Users\admin\AppData\Local\Temp\ccfrlj1c.s:394    .text.calculate_mandelbrot_double:00000000 calculate_mandelbrot_double
C:\Users\admin\AppData\Local\Temp\ccfrlj1c.s:694    .text.calculate_mandelbrot_double:00000164 $d
C:\Users\admin\AppData\Local\Temp\ccfrlj1c.s:702    .text.Error_Handler:00000000 $t
C:\Users\admin\AppData\Local\Temp\ccfrlj1c.s:708    .text.Error_Handler:00000000 Error_Handler
C:\Users\admin\AppData\Local\Temp\ccfrlj1c.s:740    .text.SystemClock_Config:00000000 $t
C:\Users\admin\AppData\Local\Temp\ccfrlj1c.s:746    .text.SystemClock_Config:00000000 SystemClock_Config
C:\Users\admin\AppData\Local\Temp\ccfrlj1c.s:846    .text.main:00000000 $t
C:\Users\admin\AppData\Local\Temp\ccfrlj1c.s:852    .text.main:00000000 main
C:\Users\admin\AppData\Local\Temp\ccfrlj1c.s:1065   .text.main:000000f8 $d
C:\Users\admin\AppData\Local\Temp\ccfrlj1c.s:1120   .data.widths:00000000 widths
C:\Users\admin\AppData\Local\Temp\ccfrlj1c.s:1109   .data.heights:00000000 heights
C:\Users\admin\AppData\Local\Temp\ccfrlj1c.s:1194   .bss.start_time:00000000 start_time
C:\Users\admin\AppData\Local\Temp\ccfrlj1c.s:1173   .bss.checksum:00000000 checksum
C:\Users\admin\AppData\Local\Temp\ccfrlj1c.s:1095   .bss.checksums:00000000 checksums
C:\Users\admin\AppData\Local\Temp\ccfrlj1c.s:1187   .bss.end_time:00000000 end_time
C:\Users\admin\AppData\Local\Temp\ccfrlj1c.s:1180   .bss.execution_time:00000000 execution_time
C:\Users\admin\AppData\Local\Temp\ccfrlj1c.s:1102   .bss.execTimes:00000000 execTimes
C:\Users\admin\AppData\Local\Temp\ccfrlj1c.s:1159   .bss.totalPixels:00000000 totalPixels
C:\Users\admin\AppData\Local\Temp\ccfrlj1c.s:1152   .bss.executionSec:00000000 executionSec
C:\Users\admin\AppData\Local\Temp\ccfrlj1c.s:1145   .bss.throughput:00000000 throughput
C:\Users\admin\AppData\Local\Temp\ccfrlj1c.s:1088   .bss.throughputs:00000000 throughputs
C:\Users\admin\AppData\Local\Temp\ccfrlj1c.s:1085   .bss.throughputs:00000000 $d
C:\Users\admin\AppData\Local\Temp\ccfrlj1c.s:1092   .bss.checksums:00000000 $d
C:\Users\admin\AppData\Local\Temp\ccfrlj1c.s:1099   .bss.execTimes:00000000 $d
C:\Users\admin\AppData\Local\Temp\ccfrlj1c.s:1106   .data.heights:00000000 $d
C:\Users\admin\AppData\Local\Temp\ccfrlj1c.s:1117   .data.widths:00000000 $d
C:\Users\admin\AppData\Local\Temp\ccfrlj1c.s:1131   .bss.height:00000000 height
C:\Users\admin\AppData\Local\Temp\ccfrlj1c.s:1128   .bss.height:00000000 $d
C:\Users\admin\AppData\Local\Temp\ccfrlj1c.s:1138   .bss.width:00000000 width
C:\Users\admin\AppData\Local\Temp\ccfrlj1c.s:1135   .bss.width:00000000 $d
C:\Users\admin\AppData\Local\Temp\ccfrlj1c.s:1142   .bss.throughput:00000000 $d
C:\Users\admin\AppData\Local\Temp\ccfrlj1c.s:1149   .bss.executionSec:00000000 $d
C:\Users\admin\AppData\Local\Temp\ccfrlj1c.s:1156   .bss.totalPixels:00000000 $d
C:\Users\admin\AppData\Local\Temp\ccfrlj1c.s:1166   .bss.cpuCycles:00000000 cpuCycles
C:\Users\admin\AppData\Local\Temp\ccfrlj1c.s:1163   .bss.cpuCycles:00000000 $d
C:\Users\admin\AppData\Local\Temp\ccfrlj1c.s:1170   .bss.checksum:00000000 $d
C:\Users\admin\AppData\Local\Temp\ccfrlj1c.s:1177   .bss.execution_time:00000000 $d
C:\Users\admin\AppData\Local\Temp\ccfrlj1c.s:1184   .bss.end_time:00000000 $d
C:\Users\admin\AppData\Local\Temp\ccfrlj1c.s:1191   .bss.start_time:00000000 $d

UNDEFINED SYMBOLS
memset
HAL_GPIO_WritePin
HAL_GPIO_Init
__aeabi_idiv
__aeabi_i2d
__aeabi_dmul
__aeabi_ddiv
ARM GAS  C:\Users\admin\AppData\Local\Temp\ccfrlj1c.s 			page 34


__aeabi_dsub
__aeabi_d2iz
__aeabi_dadd
__aeabi_dcmplt
HAL_RCC_OscConfig
HAL_RCC_ClockConfig
__aeabi_lmul
__aeabi_ui2d
__aeabi_ul2d
HAL_Init
HAL_GetTick
HAL_Delay
